Microchip MPLAB XC8 Compiler V1.38 ()

Linker command line:

-W-3 --edf=C:\Program Files (x86)\Microchip\xc8\v1.38\dat\en_msgs.txt -cs \
  -h+dist/default/production\66k40EndNode.X.production.sym \
  --cmf=dist/default/production\66k40EndNode.X.production.cmf -z \
  -Q18LF66K40 -oC:\Users\user\AppData\Local\Temp\sbsc.2 \
  -Mdist/default/production/66k40EndNode.X.production.map -E1 -ver=XC8 \
  -ASTACK=06FEh-0dddh -pstack=STACK -ACODE=00h-0FFFFh -ACONST=00h-0FFFFh \
  -ASMALLCONST=0E00h-0EFFhx242 -AMEDIUMCONST=0E00h-0FFFFh -ACOMRAM=01h-05Fh \
  -AABS1=00h-0DDDh -ABIGRAM=01h-0DDDh \
  -ARAM=060h-0FFh,0100h-01FFhx12,0D00h-0DDDh -ABANK0=060h-0FFh \
  -ABANK1=0100h-01FFh -ABANK2=0200h-02FFh -ABANK3=0300h-03FFh \
  -ABANK4=0400h-04FFh -ABANK5=0500h-05FFh -ABANK6=0600h-06FFh \
  -ABANK7=0700h-07FFh -ABANK8=0800h-08FFh -ABANK9=0900h-09FFh \
  -ABANK10=0A00h-0AFFh -ABANK11=0B00h-0BFFh -ABANK12=0C00h-0CFFh \
  -ABANK13=0D00h-0DDDh \
  -ASFR=0DDEh-0DFFh,0E00h-0EFFh,0F00h-0F5Fh,0F60h-0FFFh \
  -preset_vec=00h,intcode=08h,intcodelo,powerup,init,end_init \
  -pramtop=0E00h -psmallconst=SMALLCONST -pmediumconst=MEDIUMCONST \
  -pconst=CONST -AFARRAM=00h-00h -ACONFIG=0300000h-030000Bh -pconfig=CONFIG \
  -AIDLOC=0200000h-020000Fh -pidloc=IDLOC -AEEDATA=0310000h-03103FFh \
  -peeprom_data=EEDATA \
  -prdata=COMRAM,nvrram=COMRAM,nvbit=COMRAM,rbss=COMRAM,rbit=COMRAM \
  -pfarbss=FARRAM,fardata=FARRAM,nvFARRAM=FARRAM \
  -pintsave_regs=BIGRAM,bigbss=BIGRAM,bigdata=BIGRAM -pbss=RAM \
  -pidata=CODE,irdata=CODE,ibigdata=CODE,ifardata=CODE -prparam=COMRAM \
  C:\Users\user\AppData\Local\Temp\sbsc.obj \
  dist/default/production\66k40EndNode.X.production.obj 

Object code version is 3.11

Machine type is 18LF66K40

Call graph: (short form)




                Name                               Link     Load   Length Selector   Space Scale
C:\Users\user\AppData\Local\Temp\sbsc.obj
                stack                               6FE      6FE      6E0      6FE       2
                end_init                             86       86        4        4       0
                init                                 82       82        4        4       0
                reset_vec                             0        0        4        0       0
                idloc                            200000   200000       10   200000       0
                config                           300000   300000        C   300000       0
dist/default/production\66k40EndNode.X.production.obj
                intcode                               8        8       7A        4       0
                temp                                 4A       4A        C        1       1
                mediumconst                        FE6C     FE6C      194     7F36       0
                text214                            62AC     62AC        2        4       0
                text213                            5F48     5F48       1C        4       0
                text212                            6272     6272        6        4       0
                text211                            62AA     62AA        2        4       0
                text210                            5F2C     5F2C       1C        4       0
                text209                            626C     626C        6        4       0
                text208                            62A8     62A8        2        4       0
                text207                            5DAC     5DAC       24        4       0
                text206                            6240     6240        8        4       0
                text205                            5EB4     5EB4       20        4       0
                text204                            389C     389C       D6        4       0
                text203                            40D4     40D4       AE        4       0
                text202                            605A     605A       18        4       0
                text201                            572E     572E       42        4       0
                text200                            52E2     52E2       50        4       0
                text199                            62A6     62A6        2        4       0
                text198                            5F10     5F10       1C        4       0
                text197                            5D88     5D88       24        4       0
                text195                            5624     5624       44        4       0
                text194                            5290     5290       52        4       0
                text193                            5140     5140       58        4       0
                text192                            5C30     5C30       2A        4       0
                text191                            5036     5036       5A        4       0
                text190                            5592     5592       4A        4       0
                text189                            589E     589E       38        4       0
                text188                            5E94     5E94       20        4       0
                text187                            422E     422E       AA        4       0
                text186                            3D4C     3D4C       B8        4       0
                text185                            6042     6042       18        4       0
                text184                            5942     5942       36        4       0
                text183                            4A32     4A32       78        4       0
                text182                            4BFC     4BFC       6A        4       0
                text181                            613C     613C       12        4       0
                text180                            4AAA     4AAA       76        4       0
                text179                            5468     5468       4C        4       0
                text178                            3168     3168      100        4       0
                text177                            6298     6298        4        4       0
                text176                            6294     6294        4        4       0
                text175                            60F2     60F2       14        4       0
                text174                            5C06     5C06       2A        4       0
                text173                            5AFC     5AFC       2E        4       0
                text172                            6290     6290        4        4       0
                text171                            628C     628C        4        4       0
                text170                            612A     612A       12        4       0
                text169                            61F6     61F6        A        4       0
                text168                            5EF2     5EF2       1E        4       0
                text167                            4E5E     4E5E       62        4       0
                text166                            37C4     37C4       D8        4       0
                text165                            6266     6266        6        4       0
                text164                            5D1A     5D1A       26        4       0
                text163                            36EA     36EA       DA        4       0
                text162                            5BDA     5BDA       2C        4       0
                text161                            236A     236A      198        4       0
                text160                            61EC     61EC        A        4       0
                text159                            53CE     53CE       4E        4       0
                text158                            4B92     4B92       6A        4       0
                text157                            27FE     27FE      166        4       0
                text156                            49BA     49BA       78        4       0
                text155                            4182     4182       AC        4       0
                text154                            616C     616C        E        4       0
                text153                            541C     541C       4C        4       0
                text152                            2BFA     2BFA      124        4       0
                text151                            3A3E     3A3E       CA        4       0
                text150                            1766     1766      236        4       0
                text149                            5CF4     5CF4       26        4       0
                text148                            5548     5548       4A        4       0
                text147                            344E     344E       E2        4       0
                text146                            11E8     11E8      2D8        4       0
                text145                            523E     523E       52        4       0
                text144                            57AE     57AE       3E        4       0
                text143                            5380     5380       4E        4       0
                text142                            5DF2     5DF2       22        4       0
                text141                            2E40     2E40      114        4       0
                text140                            4DFC     4DFC       62        4       0
                text139                            4F20     4F20       5E        4       0
                text138                            3972     3972       CC        4       0
                text137                             DB6      DB6      432        4       0
                text136                            1DE0     1DE0      1E8        4       0
                text135                            6238     6238        8        4       0
                text134                            48BE     48BE       82        4       0
                text133                            5BAE     5BAE       2C        4       0
                text132                            61E2     61E2        A        4       0
                text131                            6230     6230        8        4       0
                text130                            6228     6228        8        4       0
                text129                            4940     4940       7A        4       0
                text128                            61D8     61D8        A        4       0
                text127                            61CE     61CE        A        4       0
                text126                            6220     6220        8        4       0
                text125                            56EC     56EC       42        4       0
                text124                            4022     4022       B2        4       0
                text123                            4D98     4D98       64        4       0
                text122                            5F98     5F98       1A        4       0
                text121                            4728     4728       8C        4       0
                text120                            615E     615E        E        4       0
                text119                            5CCE     5CCE       26        4       0
                text118                            21AC     21AC      1BE        4       0
                text117                            602A     602A       18        4       0
                text116                            6260     6260        6        4       0
                text115                            614E     614E       10        4       0
                text114                            61C4     61C4        A        4       0
                text113                            62A4     62A4        2        4       0
                text112                            4EC0     4EC0       60        4       0
                text111                            625A     625A        6        4       0
                text110                            60B4     60B4       16        4       0
                text109                            59E0     59E0       34        4       0
                text108                             8EA      8EA      4CC        4       0
                text107                            3364     3364       EA        4       0
                text106                            54FE     54FE       4A        4       0
                text105                            50E8     50E8       58        4       0
                text104                            4FDA     4FDA       5C        4       0
                text103                            4C66     4C66       68        4       0
                text102                            5770     5770       3E        4       0
                text101                            483A     483A       84        4       0
                text100                            4380     4380       A4        4       0
                text99                             2D1E     2D1E      122        4       0
                text98                             47B4     47B4       86        4       0
                text97                             6254     6254        6        4       0
                text96                             1FC8     1FC8      1E4        4       0
                text95                             14C0     14C0      2A6        4       0
                text94                             5828     5828       3C        4       0
                text93                             3F70     3F70       B2        4       0
                text92                             61BA     61BA        A        4       0
                text91                             5332     5332       4E        4       0
                text90                             3B08     3B08       C8        4       0
                text89                             5090     5090       58        4       0
                text88                             609E     609E       16        4       0
                text87                             6218     6218        8        4       0
                text86                             6210     6210        8        4       0
                text85                             5ACE     5ACE       2E        4       0
                text84                             6012     6012       18        4       0
                text83                             60DE     60DE       14        4       0
                text82                             5DD0     5DD0       22        4       0
                text81                             2ABA     2ABA      140        4       0
                text80                             5B82     5B82       2C        4       0
                text79                             5ED4     5ED4       1E        4       0
                text78                             5AA0     5AA0       2E        4       0
                text77                             42D8     42D8       A8        4       0
                text76                             5B56     5B56       2C        4       0
                text75                             5CA8     5CA8       26        4       0
                text74                             59AC     59AC       34        4       0
                text73                             4F7E     4F7E       5C        4       0
                text72                             268A     268A      174        4       0
                text71                             6088     6088       16        4       0
                text70                             60CA     60CA       14        4       0
                text69                             3062     3062      106        4       0
                text68                             5C82     5C82       26        4       0
                text67                             590C     590C       36        4       0
                text66                             5D64     5D64       24        4       0
                text65                             2502     2502      188        4       0
                text64                             624E     624E        6        4       0
                text63                             5D40     5D40       24        4       0
                text62                             4CCE     4CCE       66        4       0
                text61                             360E     360E       DC        4       0
                text60                             2964     2964      156        4       0
                text59                             5F7E     5F7E       1A        4       0
                text58                             5198     5198       54        4       0
                text57                               8A       8A      860        4       0
                text56                             199C     199C      22C        4       0
                text55                             4566     4566       9E        4       0
                text54                             51EC     51EC       52        4       0
                text53                             3EBA     3EBA       B6        4       0
                text52                             44C6     44C6       A0        4       0
                text51                             5E74     5E74       20        4       0
                text50                             4D34     4D34       64        4       0
                text49                             5A72     5A72       2E        4       0
                text48                             5B2A     5B2A       2C        4       0
                text47                             5864     5864       3A        4       0
                text46                             55DC     55DC       48        4       0
                text45                             5FFA     5FFA       18        4       0
                text44                             5FE2     5FE2       18        4       0
                text43                             5FCA     5FCA       18        4       0
                text42                             6118     6118       12        4       0
                text41                             4B20     4B20       72        4       0
                text40                             5978     5978       34        4       0
                text39                             58D6     58D6       36        4       0
                text38                             3E04     3E04       B6        4       0
                text37                             4424     4424       A2        4       0
                text36                             2F54     2F54      10E        4       0
                text35                             3268     3268       FC        4       0
                text34                             5F64     5F64       1A        4       0
                text33                             3BD0     3BD0       C0        4       0
                text32                             1BC8     1BC8      218        4       0
                text31                             469A     469A       8E        4       0
                text30                             57EC     57EC       3C        4       0
                text29                             5A44     5A44       2E        4       0
                text28                             5FB2     5FB2       18        4       0
                text27                             5C5A     5C5A       28        4       0
                text26                             6072     6072       16        4       0
                text25                             62A2     62A2        2        4       0
                text24                             61B0     61B0        A        4       0
                text23                             61A6     61A6        A        4       0
                text22                             62A0     62A0        2        4       0
                text21                             54B4     54B4       4A        4       0
                text20                             6288     6288        4        4       0
                text19                             6284     6284        4        4       0
                text18                             6280     6280        4        4       0
                text17                             6208     6208        8        4       0
                text16                             629E     629E        2        4       0
                text15                             629C     629C        2        4       0
                text14                             627C     627C        4        4       0
                text13                             6248     6248        6        4       0
                text12                             619C     619C        A        4       0
                text11                             6186     6186        C        4       0
                text10                             5E54     5E54       20        4       0
                text9                              6106     6106       12        4       0
                text8                              6192     6192        A        4       0
                text7                              3530     3530       DE        4       0
                text6                              617A     617A        C        4       0
                text5                              6278     6278        4        4       0
                text4                              56AA     56AA       42        4       0
                text3                              5E34     5E34       20        4       0
                text2                              5668     5668       42        4       0
                text1                              5E14     5E14       20        4       0
                text0                              3C90     3C90       BC        4       0
                cstackCOMRAM                          1        1       2F        1       1
                cstackBANK0                          60       60       98       60       1
                cstackBANK1                         100      100       6E      100       1
                cstackBANK3                         3A0      3A0       14      300       1
                bssBIGRAM                           4E0      4E0      21E      4E0       1
                bssBANK4                            400      400       E0      400       1
                bssBANK3                            300      300       A0      300       1
                bssBANK2                            200      200       F5      200       1
                dataBANK1                           1BD      1BD       30      100       1
                bssBANK1                            16E      16E       4F      100       1
                dataCOMRAM                           56       56        8        1       1
                bssCOMRAM                            30       30       1A        1       1
                cinit                              4604     4604       96        4       0
                nvBANK1                             1ED      1ED        8      100       1
                nvCOMRAM                             5E       5E        2        1       1
                idataBANK1                         5A14     5A14       30        4       0
                idataCOMRAM                        6200     6200        8        4       0

TOTAL           Name                               Link     Load   Length     Space
        CLASS   STACK          
                stack                               6FE      6FE      6E0         2

        CLASS   CODE           
                end_init                             86       86        4         0
                init                                 82       82        4         0
                intcode                               8        8       7A         0
                reset_vec                             0        0        4         0
                text214                            62AC     62AC        2         0
                text213                            5F48     5F48       1C         0
                text212                            6272     6272        6         0
                text211                            62AA     62AA        2         0
                text210                            5F2C     5F2C       1C         0
                text209                            626C     626C        6         0
                text208                            62A8     62A8        2         0
                text207                            5DAC     5DAC       24         0
                text206                            6240     6240        8         0
                text205                            5EB4     5EB4       20         0
                text204                            389C     389C       D6         0
                text203                            40D4     40D4       AE         0
                text202                            605A     605A       18         0
                text201                            572E     572E       42         0
                text200                            52E2     52E2       50         0
                text199                            62A6     62A6        2         0
                text198                            5F10     5F10       1C         0
                text197                            5D88     5D88       24         0
                text195                            5624     5624       44         0
                text194                            5290     5290       52         0
                text193                            5140     5140       58         0
                text192                            5C30     5C30       2A         0
                text191                            5036     5036       5A         0
                text190                            5592     5592       4A         0
                text189                            589E     589E       38         0
                text188                            5E94     5E94       20         0
                text187                            422E     422E       AA         0
                text186                            3D4C     3D4C       B8         0
                text185                            6042     6042       18         0
                text184                            5942     5942       36         0
                text183                            4A32     4A32       78         0
                text182                            4BFC     4BFC       6A         0
                text181                            613C     613C       12         0
                text180                            4AAA     4AAA       76         0
                text179                            5468     5468       4C         0
                text178                            3168     3168      100         0
                text177                            6298     6298        4         0
                text176                            6294     6294        4         0
                text175                            60F2     60F2       14         0
                text174                            5C06     5C06       2A         0
                text173                            5AFC     5AFC       2E         0
                text172                            6290     6290        4         0
                text171                            628C     628C        4         0
                text170                            612A     612A       12         0
                text169                            61F6     61F6        A         0
                text168                            5EF2     5EF2       1E         0
                text167                            4E5E     4E5E       62         0
                text166                            37C4     37C4       D8         0
                text165                            6266     6266        6         0
                text164                            5D1A     5D1A       26         0
                text163                            36EA     36EA       DA         0
                text162                            5BDA     5BDA       2C         0
                text161                            236A     236A      198         0
                text160                            61EC     61EC        A         0
                text159                            53CE     53CE       4E         0
                text158                            4B92     4B92       6A         0
                text157                            27FE     27FE      166         0
                text156                            49BA     49BA       78         0
                text155                            4182     4182       AC         0
                text154                            616C     616C        E         0
                text153                            541C     541C       4C         0
                text152                            2BFA     2BFA      124         0
                text151                            3A3E     3A3E       CA         0
                text150                            1766     1766      236         0
                text149                            5CF4     5CF4       26         0
                text148                            5548     5548       4A         0
                text147                            344E     344E       E2         0
                text146                            11E8     11E8      2D8         0
                text145                            523E     523E       52         0
                text144                            57AE     57AE       3E         0
                text143                            5380     5380       4E         0
                text142                            5DF2     5DF2       22         0
                text141                            2E40     2E40      114         0
                text140                            4DFC     4DFC       62         0
                text139                            4F20     4F20       5E         0
                text138                            3972     3972       CC         0
                text137                             DB6      DB6      432         0
                text136                            1DE0     1DE0      1E8         0
                text135                            6238     6238        8         0
                text134                            48BE     48BE       82         0
                text133                            5BAE     5BAE       2C         0
                text132                            61E2     61E2        A         0
                text131                            6230     6230        8         0
                text130                            6228     6228        8         0
                text129                            4940     4940       7A         0
                text128                            61D8     61D8        A         0
                text127                            61CE     61CE        A         0
                text126                            6220     6220        8         0
                text125                            56EC     56EC       42         0
                text124                            4022     4022       B2         0
                text123                            4D98     4D98       64         0
                text122                            5F98     5F98       1A         0
                text121                            4728     4728       8C         0
                text120                            615E     615E        E         0
                text119                            5CCE     5CCE       26         0
                text118                            21AC     21AC      1BE         0
                text117                            602A     602A       18         0
                text116                            6260     6260        6         0
                text115                            614E     614E       10         0
                text114                            61C4     61C4        A         0
                text113                            62A4     62A4        2         0
                text112                            4EC0     4EC0       60         0
                text111                            625A     625A        6         0
                text110                            60B4     60B4       16         0
                text109                            59E0     59E0       34         0
                text108                             8EA      8EA      4CC         0
                text107                            3364     3364       EA         0
                text106                            54FE     54FE       4A         0
                text105                            50E8     50E8       58         0
                text104                            4FDA     4FDA       5C         0
                text103                            4C66     4C66       68         0
                text102                            5770     5770       3E         0
                text101                            483A     483A       84         0
                text100                            4380     4380       A4         0
                text99                             2D1E     2D1E      122         0
                text98                             47B4     47B4       86         0
                text97                             6254     6254        6         0
                text96                             1FC8     1FC8      1E4         0
                text95                             14C0     14C0      2A6         0
                text94                             5828     5828       3C         0
                text93                             3F70     3F70       B2         0
                text92                             61BA     61BA        A         0
                text91                             5332     5332       4E         0
                text90                             3B08     3B08       C8         0
                text89                             5090     5090       58         0
                text88                             609E     609E       16         0
                text87                             6218     6218        8         0
                text86                             6210     6210        8         0
                text85                             5ACE     5ACE       2E         0
                text84                             6012     6012       18         0
                text83                             60DE     60DE       14         0
                text82                             5DD0     5DD0       22         0
                text81                             2ABA     2ABA      140         0
                text80                             5B82     5B82       2C         0
                text79                             5ED4     5ED4       1E         0
                text78                             5AA0     5AA0       2E         0
                text77                             42D8     42D8       A8         0
                text76                             5B56     5B56       2C         0
                text75                             5CA8     5CA8       26         0
                text74                             59AC     59AC       34         0
                text73                             4F7E     4F7E       5C         0
                text72                             268A     268A      174         0
                text71                             6088     6088       16         0
                text70                             60CA     60CA       14         0
                text69                             3062     3062      106         0
                text68                             5C82     5C82       26         0
                text67                             590C     590C       36         0
                text66                             5D64     5D64       24         0
                text65                             2502     2502      188         0
                text64                             624E     624E        6         0
                text63                             5D40     5D40       24         0
                text62                             4CCE     4CCE       66         0
                text61                             360E     360E       DC         0
                text60                             2964     2964      156         0
                text59                             5F7E     5F7E       1A         0
                text58                             5198     5198       54         0
                text57                               8A       8A      860         0
                text56                             199C     199C      22C         0
                text55                             4566     4566       9E         0
                text54                             51EC     51EC       52         0
                text53                             3EBA     3EBA       B6         0
                text52                             44C6     44C6       A0         0
                text51                             5E74     5E74       20         0
                text50                             4D34     4D34       64         0
                text49                             5A72     5A72       2E         0
                text48                             5B2A     5B2A       2C         0
                text47                             5864     5864       3A         0
                text46                             55DC     55DC       48         0
                text45                             5FFA     5FFA       18         0
                text44                             5FE2     5FE2       18         0
                text43                             5FCA     5FCA       18         0
                text42                             6118     6118       12         0
                text41                             4B20     4B20       72         0
                text40                             5978     5978       34         0
                text39                             58D6     58D6       36         0
                text38                             3E04     3E04       B6         0
                text37                             4424     4424       A2         0
                text36                             2F54     2F54      10E         0
                text35                             3268     3268       FC         0
                text34                             5F64     5F64       1A         0
                text33                             3BD0     3BD0       C0         0
                text32                             1BC8     1BC8      218         0
                text31                             469A     469A       8E         0
                text30                             57EC     57EC       3C         0
                text29                             5A44     5A44       2E         0
                text28                             5FB2     5FB2       18         0
                text27                             5C5A     5C5A       28         0
                text26                             6072     6072       16         0
                text25                             62A2     62A2        2         0
                text24                             61B0     61B0        A         0
                text23                             61A6     61A6        A         0
                text22                             62A0     62A0        2         0
                text21                             54B4     54B4       4A         0
                text20                             6288     6288        4         0
                text19                             6284     6284        4         0
                text18                             6280     6280        4         0
                text17                             6208     6208        8         0
                text16                             629E     629E        2         0
                text15                             629C     629C        2         0
                text14                             627C     627C        4         0
                text13                             6248     6248        6         0
                text12                             619C     619C        A         0
                text11                             6186     6186        C         0
                text10                             5E54     5E54       20         0
                text9                              6106     6106       12         0
                text8                              6192     6192        A         0
                text7                              3530     3530       DE         0
                text6                              617A     617A        C         0
                text5                              6278     6278        4         0
                text4                              56AA     56AA       42         0
                text3                              5E34     5E34       20         0
                text2                              5668     5668       42         0
                text1                              5E14     5E14       20         0
                text0                              3C90     3C90       BC         0
                cinit                              4604     4604       96         0
                idataBANK1                         5A14     5A14       30         0
                idataCOMRAM                        6200     6200        8         0

        CLASS   CONST          

        CLASS   SMALLCONST     

        CLASS   MEDIUMCONST    
                mediumconst                        FE6C     FE6C      194         0

        CLASS   COMRAM         
                temp                                 4A       4A        C         1
                cstackCOMRAM                          1        1       2F         1
                dataCOMRAM                           56       56        8         1
                bssCOMRAM                            30       30       1A         1
                nvCOMRAM                             5E       5E        2         1

        CLASS   ABS1           

        CLASS   BIGRAM         
                bssBIGRAM                           4E0      4E0      21E         1

        CLASS   RAM            

        CLASS   BANK0          
                cstackBANK0                          60       60       98         1

        CLASS   BANK1          
                cstackBANK1                         100      100       6E         1
                dataBANK1                           1BD      1BD       30         1
                bssBANK1                            16E      16E       4F         1
                nvBANK1                             1ED      1ED        8         1

        CLASS   BANK2          
                bssBANK2                            200      200       F5         1

        CLASS   BANK3          
                cstackBANK3                         3A0      3A0       14         1
                bssBANK3                            300      300       A0         1

        CLASS   BANK4          
                bssBANK4                            400      400       E0         1

        CLASS   BANK5          

        CLASS   BANK6          

        CLASS   BANK7          

        CLASS   BANK8          

        CLASS   BANK9          

        CLASS   BANK10         

        CLASS   BANK11         

        CLASS   BANK12         

        CLASS   BANK13         

        CLASS   SFR            

        CLASS   FARRAM         

        CLASS   CONFIG         
                config                           300000   300000        C         0

        CLASS   IDLOC          
                idloc                            200000   200000       10         0

        CLASS   EEDATA         



SEGMENTS        Name                           Load    Length   Top    Selector   Space  Class

                reset_vec                      000000  000004  000004         0       0  CODE    
                cstackCOMRAM                   000001  00005F  000060         1       1  COMRAM  
                intcode                        000008  0062A6  0062AE         4       0  CODE    
                cstackBANK0                    000060  000098  0000F8        60       1  BANK0   
                cstackBANK1                    000100  0000F5  0001F5       100       1  BANK1   
                bssBANK2                       000200  0000F5  0002F5       200       1  BANK2   
                bssBANK3                       000300  0000B4  0003B4       300       1  BANK3   
                bssBANK4                       000400  0000E0  0004E0       400       1  BANK4   
                bssBIGRAM                      0004E0  00021E  0006FE       4E0       1  BIGRAM  
                stack                          0006FE  0006E0  000DDE       6FE       2  STACK   
                mediumconst                    00FE6C  000194  010000      7F36       0  MEDIUMCO
                idloc                          200000  000010  200010    200000       0  IDLOC   
                config                         300000  00000C  30000C    300000       0  CONFIG  


UNUSED ADDRESS RANGES

        Name                Unused          Largest block    Delta
        BANK0            0000F8-0000FF                8
        BANK1            0001F5-0001FF                B
        BANK10           000A00-000AFF              100
        BANK11           000B00-000BFF              100
        BANK12           000C00-000CFF              100
        BANK13           000D00-000DDD               DE
        BANK2            0002F5-0002FF                B
        BANK3            0003B4-0003FF               4C
        BANK6            0006FE-0006FF                2
        BANK7            000700-0007FF              100
        BANK8            000800-0008FF              100
        BANK9            000900-0009FF              100
        BIGRAM           0000F8-0000FF                8
                         0001F5-0001FF                B
                         0002F5-0002FF                B
                         0003B4-0003FF               4C
                         0006FE-000DDD              6E0
        CODE             000004-000007                4
                         0062AE-00FE6B             9BBE
        CONST            000004-000007                4
                         0062AE-00FE6B             9BBE
        EEDATA           310000-3103FF              400
        MEDIUMCONST      0062AE-00FE6B             9BBE
        RAM              0000F8-0000FF                8
                         0001F5-0001FF                B
                         0002F5-0002FF                B
                         0003B4-0003FF               4C
                         0006FE-000DDD              100
        SFR              000DDE-000FFF              100
        SMALLCONST       0062AE-00FE6B              100

                                  Symbol Table

?_ComputeMic                                              cstackBANK0  0000DA
?_ExecuteDevStatus                                        cstackBANK0  000064
?_ExecuteDutyCycle                                        cstackBANK0  000064
?_ExecuteLinkAdr                                          cstackBANK0  000071
?_ExecuteLinkCheck                                        cstackBANK0  000064
?_ExecuteNewChannel                                       cstackBANK0  0000A0
?_ExecuteRxParamSetupReq                                  cstackBANK0  0000A0
?_ExecuteRxTimingSetup                                    cstackBANK0  00006B
?_ExtractMic                                              cstackBANK0  00006E
?_GetRx1Freq                                              cstackBANK0  000064
?_MacExecuteCommands                                      cstackBANK0  0000A8
?_RADIO_ReadRandom                                        cstackBANK0  000070
?_RADIO_ReceiveStart                                      cstackBANK0  0000AA
?_RADIO_Transmit                                          cstackBANK0  0000AA
?_Random                                                  cstackBANK0  0000A7
?_SwTimerReadValue                                        cstackBANK0  00008B
?_SwTimersInterrupt                                       cstackBANK0  00007A
?_TMR1_ReadTimer                                          cstackBANK0  000064
?_TMR_GetDeltaTime                                        cstackBANK0  00006A
?_TMR_SwapTimer                                           cstackBANK0  00006A
?___lldiv                                                 cstackBANK0  000064
?___llmod                                                 cstackBANK0  000064
?___lmul                                                  cstackBANK0  000094
?___lwmod                                                 cstackBANK0  0000A2
?___wmul                                                  cstackBANK0  000064
?_rand                                                    cstackBANK0  0000A0
?i2_SwTimersInterrupt                                     cstackCOMRAM 000017
?i2_TMR1_ReadTimer                                        cstackCOMRAM 000001
?i2_TMR_GetDeltaTime                                      cstackCOMRAM 000007
?i2_TMR_SwapTimer                                         cstackCOMRAM 000007
AESCmac@flag                                              cstackBANK1  000162
AESCmac@i                                                 cstackBANK1  000165
AESCmac@input                                             cstackBANK0  0000D0
AESCmac@j                                                 cstackBANK1  000164
AESCmac@k1                                                cstackBANK1  000110
AESCmac@k2                                                cstackBANK1  000100
AESCmac@key                                               cstackBANK0  0000CC
AESCmac@mLast                                             cstackBANK1  000120
AESCmac@n                                                 cstackBANK1  000163
AESCmac@output                                            cstackBANK0  0000CE
AESCmac@padded                                            cstackBANK1  000130
AESCmac@ptr                                               cstackBANK1  000160
AESCmac@size                                              cstackBANK0  0000D2
AESCmac@x                                                 cstackBANK1  000150
AESCmac@y                                                 cstackBANK1  000140
AESEncode@aux                                             cstackBANK0  00008B
AESEncode@aux1                                            cstackBANK0  00008D
AESEncode@aux2                                            cstackBANK0  00008C
AESEncode@aux3                                            cstackBANK0  00008E
AESEncode@block                                           cstackBANK0  00006A
AESEncode@i                                               cstackBANK0  00008F
AESEncode@key                                             cstackBANK0  000075
AESEncode@masterKey                                       cstackBANK0  00006C
AESEncodeLoRa@block                                       cstackBANK0  000090
AESEncodeLoRa@key                                         cstackBANK0  000092
AESEncodeLoRa@useKey                                      cstackBANK0  000094
AssembleEncryptionBlock@blockId                           cstackBANK0  000072
AssembleEncryptionBlock@bufferIndex                       cstackBANK0  000076
AssembleEncryptionBlock@dir                               cstackBANK0  000075
AssembleEncryptionBlock@firstByte                         cstackBANK0  000073
AssembleEncryptionBlock@frameCounter                      cstackBANK0  00006E
AssembleEncryptionBlock@multicastStatus                   cstackBANK0  000074
AssemblePacket@buffer                                     cstackBANK1  000167
AssemblePacket@bufferIndex                                cstackBANK0  0000E0
AssemblePacket@bufferLength                               cstackBANK1  000169
AssemblePacket@confirmed                                  cstackBANK0  0000DC
AssemblePacket@fCtrl                                      cstackBANK0  0000DE
AssemblePacket@macCmdIdx                                  cstackBANK0  0000DF
AssemblePacket@mhdr                                       cstackBANK0  0000DD
AssemblePacket@port                                       cstackBANK1  000166
CheckFlags@hdr                                            cstackBANK0  000064
CheckMcastFlags@hdr                                       cstackBANK0  000064
ComputeMic@buffer                                         cstackBANK0  0000DC
ComputeMic@bufferLength                                   cstackBANK0  0000DE
ComputeMic@key                                            cstackBANK0  0000DA
ComputeMic@mic                                            cstackBANK0  0000DF
ComputeSessionKeys@joinAcceptBuffer                       cstackBANK0  0000A4
ConfigureRadio@dataRate                                   cstackBANK0  000075
ConfigureRadio@freq                                       cstackBANK0  000071
ConfigureRadioRx@dataRate                                 cstackBANK0  00007A
ConfigureRadioRx@freq                                     cstackBANK0  000076
ConfigureRadioTx@dataRate                                 cstackBANK0  00007A
ConfigureRadioTx@freq                                     cstackBANK0  000076
ConfigureRadioTx@txPower                                  cstackBANK0  00007B
CountfOptsLength@i                                        cstackBANK0  00006B
CountfOptsLength@macCommandLength                         cstackBANK0  00006A
EnableChannels1@channelIndexMax                           cstackBANK0  00006C
EnableChannels1@channelIndexMin                           cstackBANK0  00006B
EnableChannels1@channelMask                               cstackBANK0  000068
EnableChannels1@channelMaskCntl                           cstackBANK0  00006A
EnableChannels1@i                                         cstackBANK0  00006D
EnableChannels@channelMask                                cstackBANK0  00006E
EnableChannels@channelMaskCntl                            cstackBANK0  000070
EncKeySchedule@key                                        cstackBANK0  000064
EncodeShiftRow@stateTable                                 cstackBANK0  000064
EncodeShiftRow@temp                                       cstackBANK0  000066
EncryptFRMPayload@buffer                                  cstackBANK0  0000A4
EncryptFRMPayload@bufferLength                            cstackBANK0  0000A6
EncryptFRMPayload@bufferToBeEncrypted                     cstackBANK0  0000AF
EncryptFRMPayload@dir                                     cstackBANK0  0000A7
EncryptFRMPayload@frameCounter                            cstackBANK0  0000A8
EncryptFRMPayload@i                                       cstackBANK0  0000B8
EncryptFRMPayload@j                                       cstackBANK0  0000B9
EncryptFRMPayload@k                                       cstackBANK0  0000B7
EncryptFRMPayload@key                                     cstackBANK0  0000AC
EncryptFRMPayload@macBufferIndex                          cstackBANK0  0000AE
EncryptFRMPayload@multicastStatus                         cstackBANK0  0000B1
ExecuteDevStatus@ptr                                      cstackBANK0  000064
ExecuteDutyCycle@maxDCycle                                cstackBANK0  000069
ExecuteDutyCycle@ptr                                      cstackBANK0  000064
ExecuteLinkAdr@channelMask                                cstackBANK0  000074
ExecuteLinkAdr@dataRate                                   cstackBANK0  000079
ExecuteLinkAdr@ptr                                        cstackBANK0  000071
ExecuteLinkAdr@redundancy                                 cstackBANK0  000077
ExecuteLinkAdr@txPower                                    cstackBANK0  000076
ExecuteLinkCheck@ptr                                      cstackBANK0  000064
ExecuteNewChannel@channelIndex                            cstackBANK0  0000A7
ExecuteNewChannel@drRange                                 cstackBANK0  0000A2
ExecuteNewChannel@frequency                               cstackBANK0  0000A3
ExecuteNewChannel@ptr                                     cstackBANK0  0000A0
ExecuteRxParamSetupReq@dlSettings                         cstackBANK0  0000A6
ExecuteRxParamSetupReq@frequency                          cstackBANK0  0000A2
ExecuteRxParamSetupReq@ptr                                cstackBANK0  0000A0
ExecuteRxTimingSetup@delay                                cstackBANK0  00006D
ExecuteRxTimingSetup@ptr                                  cstackBANK0  00006B
ExtractMic@buffer                                         cstackBANK0  00006E
ExtractMic@bufferLength                                   cstackBANK0  000070
ExtractMic@mic                                            cstackBANK0  000074
FillSubKey@carry                                          cstackBANK0  00006A
FillSubKey@i                                              cstackBANK0  00006B
FillSubKey@key                                            cstackBANK0  000066
FillSubKey@size                                           cstackBANK0  000068
FillSubKey@source                                         cstackBANK0  000064
FindSmallestDataRate@dataRate                             cstackBANK0  000067
FindSmallestDataRate@found                                cstackBANK0  000065
FindSmallestDataRate@i                                    cstackBANK0  000066
GenerateSubkey@F17044                                     dataBANK1    0001BD
GenerateSubkey@const_Rb                                   cstackBANK0  0000AB
GenerateSubkey@i                                          cstackBANK0  0000CB
GenerateSubkey@k1                                         cstackBANK0  0000A6
GenerateSubkey@k2                                         cstackBANK0  0000A8
GenerateSubkey@key                                        cstackBANK0  0000A4
GenerateSubkey@l                                          cstackBANK0  0000BB
HALResetPinOutputValue@value                              cstackBANK0  000064
HALSPISend@data                                           cstackBANK0  000065
INT0_SetInterruptHandler@InterruptHandler                 cstackBANK0  000064
INT1_SetInterruptHandler@InterruptHandler                 cstackBANK0  000064
INT2_SetInterruptHandler@InterruptHandler                 cstackBANK0  000064
INT3_SetInterruptHandler@InterruptHandler                 cstackBANK0  000064
INTERRUPT_GetDioStatus@a                                  cstackBANK0  000064
IOCBF4_SetInterruptHandler@InterruptHandler               cstackBANK0  000064
IncludeMacCommandsResponse@bIncludeInFopts                cstackBANK0  000067
IncludeMacCommandsResponse@bufferIndex                    cstackBANK0  00006F
IncludeMacCommandsResponse@i                              cstackBANK0  00006E
IncludeMacCommandsResponse@macBuffer                      cstackBANK0  000064
IncludeMacCommandsResponse@pBufferIndex                   cstackBANK0  000066
InitDefault433Channels@i                                  cstackBANK0  00006E
InitDefault868Channels@i                                  cstackBANK0  00006E
LORAWAN_GetMaxPayloadSize@macCommandsLength               cstackBANK0  00006D
LORAWAN_GetMaxPayloadSize@result                          cstackBANK0  00006E
LORAWAN_Init@RxJoinResponse                               cstackBANK0  0000AE
LORAWAN_Init@RxPayload                                    cstackBANK0  0000AC
LORAWAN_Join@activationTypeNew                            cstackBANK0  0000EE
LORAWAN_Join@bufferIndex                                  cstackBANK0  0000EC
LORAWAN_Join@result                                       cstackBANK0  0000ED
LORAWAN_LinkCheckConfigure@iCtr                           cstackBANK0  0000AA
LORAWAN_LinkCheckConfigure@period                         cstackBANK0  0000A0
LORAWAN_Reset@ismBandNew                                  cstackBANK0  0000AB
LORAWAN_RxDone@buffer                                     cstackBANK1  00016B
LORAWAN_RxDone@bufferIndex                                cstackBANK3  0003A7
LORAWAN_RxDone@bufferLength                               cstackBANK1  00016D
LORAWAN_RxDone@channelIndex                               cstackBANK3  0003A1
LORAWAN_RxDone@computedMic                                cstackBANK3  0003AB
LORAWAN_RxDone@extractedMic                               cstackBANK3  0003A3
LORAWAN_RxDone@fPort                                      cstackBANK3  0003A0
LORAWAN_RxDone@frmPayloadLength                           cstackBANK3  0003B1
LORAWAN_RxDone@hdr                                        cstackBANK3  0003B2
LORAWAN_RxDone@joinAccept                                 cstackBANK3  0003AF
LORAWAN_RxDone@mhdr                                       cstackBANK3  0003A2
LORAWAN_RxDone@packet                                     cstackBANK3  0003A9
LORAWAN_RxDone@temp                                       cstackBANK3  0003A8
LORAWAN_RxTimeout@i                                       cstackBANK0  0000C3
LORAWAN_RxTimeout@minim                                   cstackBANK0  0000BF
LORAWAN_Send@buffer                                       cstackBANK0  0000E2
LORAWAN_Send@bufferLength                                 cstackBANK0  0000E4
LORAWAN_Send@confirmed                                    cstackBANK0  0000E7
LORAWAN_Send@port                                         cstackBANK0  0000E1
LORAWAN_Send@result                                       cstackBANK0  0000E6
LORAWAN_SetApplicationSessionKey@applicationSessionKeyNew cstackBANK0  00006E
LORAWAN_SetChannelIdStatus@channelId                      cstackBANK0  00006A
LORAWAN_SetChannelIdStatus@statusNew                      cstackBANK0  000068
LORAWAN_SetDeviceAddress@deviceAddressNew                 cstackBANK0  000064
LORAWAN_SetNetworkSessionKey@networkSessionKeyNew         cstackBANK0  00006E
LORAWAN_TxDone@delta                                      cstackBANK0  0000C7
LORAWAN_TxDone@found                                      cstackBANK0  0000C6
LORAWAN_TxDone@i                                          cstackBANK0  0000D7
LORAWAN_TxDone@minim                                      cstackBANK0  0000D3
LORAWAN_TxDone@ticks                                      cstackBANK0  0000CF
LORAWAN_TxDone@timeOnAir                                  cstackBANK0  0000B4
MacExecuteCommands@buffer                                 cstackBANK0  0000A8
MacExecuteCommands@done                                   cstackBANK0  0000AD
MacExecuteCommands@fOptsLen                               cstackBANK0  0000AA
MacExecuteCommands@ptr                                    cstackBANK0  0000AE
PIN_MANAGER_Initialize@state                              cstackBANK0  000066
PL10                                                      text186      003DF4
PL100                                                     text150      001918
PL102                                                     text57       000762
PL104                                                     text108      000D9E
PL106                                                     text57       000784
PL108                                                     text57       000798
PL110                                                     text150      001926
PL112                                                     text32       001D84
PL114                                                     text32       001D90
PL116                                                     text150      00193A
PL118                                                     text99       002DE6
PL12                                                      text77       00436E
PL120                                                     text32       001D9C
PL122                                                     text136      001F80
PL124                                                     text187      0042AA
PL126                                                     text204      003914
PL128                                                     text137      00117E
PL130                                                     text100      0043E0
PL132                                                     text118      00233C
PL134                                                     text105      005132
PL136                                                     text204      003932
PL138                                                     text108      000DAE
PL14                                                      text96       00217C
PL140                                                     text32       001DBA
PL142                                                     text100      0043EA
PL144                                                     text57       0007AC
PL146                                                     text57       0007B8
PL148                                                     text103      004CA8
PL150                                                     text38       003EA8
PL152                                                     text37       0044AC
PL154                                                     text146      00141C
PL156                                                     text150      00195A
PL158                                                     text162      005BF6
PL16                                                      text96       00218A
PL160                                                     text145      005288
PL162                                                     text57       0007D2
PL164                                                     text106      005538
PL166                                                     text57       0007E2
PL168                                                     text57       0007EA
PL170                                                     text57       0007F2
PL172                                                     text157      002918
PL174                                                     text94       005858
PL176                                                     text147      003506
PL178                                                     text95       00170C
PL18                                                      text90       003B90
PL180                                                     text141      002F1C
PL182                                                     text190      0055D2
PL184                                                     text90       003B9E
PL186                                                     text57       00080A
PL188                                                     text191      005072
PL190                                                     text141      002F26
PL192                                                     text112      004F0A
PL194                                                     text41       004B6E
PL196                                                     text118      00234E
PL198                                                     text57       000820
PL2                                                       text81       002BD6
PL20                                                      text152      002CC4
PL200                                                     text100      0043F6
PL202                                                     text104      005020
PL204                                                     text57       00082E
PL206                                                     text147      00351C
PL208                                                     text204      00394E
PL210                                                     text72       0027C8
PL212                                                     text57       00083C
PL214                                                     text100      004404
PL216                                                     text57       000850
PL218                                                     text95       001718
PL22                                                      text108      000D26
PL220                                                     text146      001436
PL222                                                     text95       00172C
PL224                                                     text161      0024F0
PL226                                                     text57       000864
PL228                                                     text146      001440
PL230                                                     text32       001DC4
PL232                                                     text99       002E06
PL234                                                     text95       00173E
PL236                                                     text62       004D24
PL238                                                     text107      00341E
PL24                                                      text57       0006EA
PL240                                                     text36       003056
PL242                                                     text163      0037B2
PL244                                                     text150      001964
PL246                                                     text150      001970
PL248                                                     text166      003890
PL250                                                     text95       00174A
PL252                                                     text103      004CC2
PL254                                                     text56       001BAC
PL256                                                     text57       00086C
PL258                                                     text187      0042C8
PL26                                                      text152      002CEC
PL260                                                     text150      00197C
PL262                                                     text99       002E18
PL264                                                     text57       000876
PL266                                                     text100      00440E
PL268                                                     text107      00342A
PL270                                                     text141      002F3C
PL272                                                     text123      004DEC
PL274                                                     text55       0045E8
PL276                                                     text33       003C88
PL278                                                     text57       000880
PL28                                                      text57       0006FA
PL280                                                     text146      001450
PL282                                                     text141      002F44
PL284                                                     text204      003962
PL286                                                     text81       002BE6
PL288                                                     text41       004B7A
PL290                                                     text57       00088C
PL292                                                     text201      005762
PL294                                                     text57       000894
PL296                                                     text99       002E28
PL298                                                     text90       003BA8
PL30                                                      text60       002A78
PL300                                                     text80       005BA0
PL302                                                     text29       005A6A
PL304                                                     text55       0045F6
PL306                                                     text100      004416
PL308                                                     text72       0027DC
PL310                                                     text41       004B84
PL312                                                     text146      001458
PL314                                                     text155      004214
PL316                                                     text150      00198C
PL318                                                     text146      001460
PL32                                                      text118      002332
PL320                                                     text107      003434
PL322                                                     text90       003BB4
PL324                                                     text32       001DD6
PL326                                                     text146      00146E
PL328                                                     text57       0008A2
PL330                                                     text72       0027EA
PL332                                                     text81       002BF0
PL334                                                     text57       0008AC
PL336                                                     text90       003BBE
PL338                                                     text72       0027F4
PL34                                                      text57       00070A
PL340                                                     text136      001F94
PL342                                                     text137      001190
PL344                                                     text146      001478
PL346                                                     text146      001482
PL348                                                     text146      00148E
PL350                                                     text107      003442
PL352                                                     text155      004222
PL354                                                     text136      001FA0
PL356                                                     text57       0008B6
PL358                                                     text137      00119C
PL36                                                      text31       004708
PL360                                                     text7        003602
PL362                                                     text136      001FAC
PL364                                                     text157      002930
PL366                                                     text150      001994
PL368                                                     text157      00293C
PL370                                                     text57       0008C2
PL372                                                     text137      0011A8
PL374                                                     text157      002946
PL376                                                     text157      002950
PL378                                                     text115      006156
PL38                                                      text107      003402
PL380                                                     text95       001756
PL382                                                     text95       00175E
PL384                                                     text136      001FB8
PL386                                                     text156      004A1C
PL388                                                     text129      0049B0
PL390                                                     text56       001BB6
PL392                                                     text57       0008CC
PL394                                                     text157      00295A
PL396                                                     text118      00235A
PL398                                                     text137      0011B0
PL4                                                       text108      000CE2
PL40                                                      text152      002CFA
PL400                                                     text99       002E36
PL402                                                     text191      00507C
PL404                                                     text137      0011BA
PL406                                                     text38       003EB0
PL408                                                     text146      00149A
PL410                                                     text156      004A24
PL412                                                     text146      0014A2
PL414                                                     text17       00620A
PL416                                                     text137      0011C2
PL418                                                     text60       002AB0
PL42                                                      text57       00071C
PL420                                                     text136      001FC2
PL422                                                     text65       002680
PL424                                                     text146      0014AC
PL426                                                     text185      006050
PL428                                                     text200      005328
PL430                                                     text62       004D2A
PL432                                                     text57       0008D6
PL434                                                     text202      006068
PL436                                                     text69       00315E
PL438                                                     text56       001BBE
PL44                                                      text36       00300E
PL440                                                     text96       00219A
PL442                                                     text191      005086
PL444                                                     text146      0014B6
PL446                                                     text57       0008E0
PL448                                                     text104      00502E
PL450                                                     text137      0011C8
PL452                                                     text90       003BC8
PL454                                                     text137      0011D0
PL456                                                     text118      002364
PL458                                                     text137      0011D6
PL46                                                      text33       003C5C
PL460                                                     text163      0037BE
PL462                                                     text138      003A38
PL464                                                     text137      0011DC
PL466                                                     text89       0050E0
PL468                                                     text40       0059A6
PL470                                                     text96       0021A4
PL472                                                     text156      004A2C
PL474                                                     text137      0011E2
PL48                                                      text108      000D3A
PL50                                                      text152      002D08
PL52                                                      text57       000726
PL54                                                      text101      00488C
PL56                                                      text101      004898
PL58                                                      text151      003AF0
PL6                                                       text77       00435E
PL60                                                      text108      000D46
PL62                                                      text36       003042
PL64                                                      text151      003AFE
PL66                                                      text108      000D7C
PL68                                                      text152      002D14
PL70                                                      text33       003C6E
PL72                                                      text76       005B72
PL74                                                      text150      0018FC
PL76                                                      text150      00190A
PL78                                                      text141      002EF6
PL8                                                       text108      000CF2
PL80                                                      text60       002A90
PL82                                                      text56       001BA2
PL84                                                      text101      0048A2
PL86                                                      text48       005B4A
PL88                                                      text108      000D84
PL90                                                      text60       002AA2
PL92                                                      text57       000732
PL94                                                      text31       004718
PL96                                                      text57       000740
PL98                                                      text108      000D8E
PrepareJoinRequestFrame@bufferIndex                       cstackBANK0  0000EA
PrepareJoinRequestFrame@iCtr                              cstackBANK0  0000EB
PrepareJoinRequestFrame@mhdr                              cstackBANK0  0000E9
PrepareJoinRequestFrame@mic                               cstackBANK0  0000E5
PrepareSessionKeys@appNonce                               cstackBANK0  000070
PrepareSessionKeys@index                                  cstackBANK0  000074
PrepareSessionKeys@networkId                              cstackBANK0  000072
PrepareSessionKeys@sessionKey                             cstackBANK0  00006E
RADIO_DIO0@dioMapping                                     cstackBANK0  0000F1
RADIO_DIO0@opMode                                         cstackBANK0  0000F2
RADIO_DIO1@dioMapping                                     cstackBANK0  0000C5
RADIO_DIO2@dioMapping                                     cstackBANK0  00007E
RADIO_FSKPacketSent@irqFlags                              cstackBANK0  0000E0
RADIO_FSKPacketSent@timeOnAir                             cstackBANK0  0000D8
RADIO_FSKPayloadReady@i                                   cstackBANK0  0000EE
RADIO_FSKPayloadReady@irqFlags                            cstackBANK0  0000ED
RADIO_Init@frequency                                      cstackBANK0  00007F
RADIO_Init@radioBuffer                                    cstackBANK0  00007D
RADIO_ReadRandom@i                                        cstackBANK0  000074
RADIO_ReadRandom@retVal                                   cstackBANK0  000072
RADIO_ReceiveStart@rxWindowSize                           cstackBANK0  0000AA
RADIO_RegisterRead@readValue                              cstackBANK0  000067
RADIO_RegisterRead@reg                                    cstackBANK0  000066
RADIO_RegisterWrite@reg                                   cstackBANK0  000067
RADIO_RegisterWrite@value                                 cstackBANK0  000066
RADIO_RxDone@i                                            cstackBANK0  0000EE
RADIO_RxDone@irqFlags                                     cstackBANK0  0000ED
RADIO_SetBandwidth@bandwidth                              cstackBANK0  000064
RADIO_SetCRC@crc                                          cstackBANK0  000064
RADIO_SetChannelFrequency@frequency                       cstackBANK0  000064
RADIO_SetFSKSyncWord@syncWord                             cstackBANK0  00006E
RADIO_SetFSKSyncWord@syncWordLen                          cstackBANK0  000070
RADIO_SetFrequencyHopPeriod@frequencyHopPeriod            cstackBANK0  000064
RADIO_SetIQInverted@iqInverted                            cstackBANK0  000064
RADIO_SetLoRaSyncWord@syncWord                            cstackBANK0  000064
RADIO_SetModulation@modulation                            cstackBANK0  000064
RADIO_SetOutputPower@power                                cstackBANK0  000064
RADIO_SetSpreadingFactor@spreadingFactor                  cstackBANK0  000064
RADIO_Transmit@buffer                                     cstackBANK0  0000AA
RADIO_Transmit@bufferLen                                  cstackBANK0  0000AC
RADIO_Transmit@i                                          cstackBANK0  0000BA
RADIO_Transmit@regValue                                   cstackBANK0  0000B9
RADIO_TxDone@timeOnAir                                    cstackBANK0  0000D8
RADIO_UnhandledInterrupt@modulation                       cstackBANK0  000068
RADIO_WriteConfiguration@i                                cstackBANK0  0000A4
RADIO_WriteConfiguration@regValue                         cstackBANK0  0000A9
RADIO_WriteConfiguration@symbolTimeout                    cstackBANK0  0000A0
RADIO_WriteConfiguration@tempValue                        cstackBANK0  0000A5
RADIO_WriteFSKBitRate@bitRate                             cstackBANK0  000071
RADIO_WriteFSKBitRate@num                                 cstackBANK0  000075
RADIO_WriteFSKFrequencyDeviation@frequencyDeviation       cstackBANK0  000071
RADIO_WriteFSKFrequencyDeviation@num                      cstackBANK0  000075
RADIO_WriteFrequency@frequency                            cstackBANK0  000071
RADIO_WriteFrequency@num                                  cstackBANK0  000079
RADIO_WriteFrequency@num_mod                              cstackBANK0  000075
RADIO_WriteMode@blocking                                  cstackBANK0  00006A
RADIO_WriteMode@currentMode                               cstackBANK0  00006D
RADIO_WriteMode@currentModulation                         cstackBANK0  00006B
RADIO_WriteMode@dioMapping                                cstackBANK0  00006C
RADIO_WriteMode@newMode                                   cstackBANK0  00006E
RADIO_WriteMode@newModulation                             cstackBANK0  000069
RADIO_WriteMode@opMode                                    cstackBANK0  00006F
RADIO_WritePower@ocp                                      cstackBANK0  000068
RADIO_WritePower@paDac                                    cstackBANK0  000069
RADIO_WritePower@power                                    cstackBANK0  00006A
Random@max                                                cstackBANK0  0000A7
RxDataDone@dataLength                                     cstackBANK0  000066
RxDataDone@pData                                          cstackBANK0  000064
RxDataDone@status                                         cstackBANK0  000067
SPI2_Exchange8bit@data                                    cstackBANK0  000064
SearchAvailableChannel@channelIndex                       cstackBANK0  0000AA
SearchAvailableChannel@i                                  cstackBANK0  0000B4
SearchAvailableChannel@maxChannels                        cstackBANK0  0000B2
SearchAvailableChannel@randomNumber                       cstackBANK0  0000B3
SearchAvailableChannel@randomNumberCopy                   cstackBANK0  0000B0
SearchAvailableChannel@result                             cstackBANK0  0000B1
SearchAvailableChannel@transmissionType                   cstackBANK0  0000A9
SelectChannelForTransmission@channelIndex                 cstackBANK0  0000B7
SelectChannelForTransmission@result                       cstackBANK0  0000B6
SelectChannelForTransmission@transmissionType             cstackBANK0  0000B5
StartReTxTimer@i                                          cstackBANK0  00009C
StartReTxTimer@minim                                      cstackBANK0  000098
SwTimerCreate@retVal                                      cstackBANK0  000064
SwTimerIsRunning@isRunning                                cstackBANK0  000065
SwTimerIsRunning@timerId                                  cstackBANK0  000064
SwTimerReadValue@ticksCount                               cstackBANK0  00008F
SwTimerReadValue@timerId                                  cstackBANK0  000093
SwTimerSetCallback@callback                               cstackBANK0  000064
SwTimerSetCallback@callbackParameter                      cstackBANK0  000066
SwTimerSetCallback@timerId                                cstackBANK0  000067
SwTimerSetTimeout@timeout                                 cstackBANK0  000071
SwTimerSetTimeout@timerId                                 cstackBANK0  000079
SwTimerStart@ticksRemaining                               cstackBANK0  00008F
SwTimerStart@timerId                                      cstackBANK0  000093
SwTimerStop@timerId                                       cstackBANK0  000064
SwTimersExecute@i                                         cstackBANK0  0000EC
SwTimersInterrupt@i                                       cstackBANK0  00008A
SwTimersInterrupt@ticksToNextTimerEvent                   cstackBANK0  000086
SwTimersInterrupt@timeElapsed                             cstackBANK0  000082
SystemBlockingWaitMs@ms                                   cstackBANK0  000064
TMR1_ISR@CountCallBack                                    bssCOMRAM    00003C
TMR1_ReadTimer@readVal                                    cstackBANK0  000068
TMR1_SetInterruptHandler@InterruptHandler                 cstackBANK0  000064
TMR1_WriteTimer@timerVal                                  cstackBANK0  000064
TMR_GetDeltaTime@retVal                                   bssCOMRAM    000030
TMR_GetDeltaTime@tmrVal                                   bssCOMRAM    00003E
TMR_OverrideRemaining@oldReloadVal                        cstackBANK0  000074
TMR_OverrideRemaining@ticksRemaining                      cstackBANK0  00006C
TMR_OverrideRemaining@tmrVal                              cstackBANK0  000072
TMR_SwapTimer@oldVal                                      bssCOMRAM    000040
TMR_SwapTimer@retVal                                      bssCOMRAM    000042
TMR_SwapTimer@timerVal                                    cstackBANK0  00006A
UpdateCfList@bufferLength                                 cstackBANK0  0000A4
UpdateCfList@channelIndex                                 cstackBANK0  0000A9
UpdateCfList@frequency                                    cstackBANK0  0000A5
UpdateCfList@i                                            cstackBANK0  0000AA
UpdateCfList@joinAccept                                   cstackBANK0  0000A0
UpdateChannelIdStatus@channelId                           cstackBANK0  000066
UpdateChannelIdStatus@i                                   cstackBANK0  000067
UpdateChannelIdStatus@statusNew                           cstackBANK0  000064
UpdateCurrentDataRate@valueNew                            cstackBANK0  000064
UpdateDLSettings@dlRx1DrOffset                            cstackBANK0  000064
UpdateDLSettings@dlRx2Dr                                  cstackBANK0  000065
UpdateDataRange@channelId                                 cstackBANK0  000066
UpdateDataRange@dataRangeNew                              cstackBANK0  000064
UpdateDataRange@i                                         cstackBANK0  000067
UpdateDutyCycle@channelId                                 cstackBANK0  000066
UpdateDutyCycle@dutyCycleNew                              cstackBANK0  000064
UpdateFrequency@channelId                                 cstackBANK0  000068
UpdateFrequency@frequencyNew                              cstackBANK0  000064
UpdateJoinInProgress@state                                cstackBANK0  000064
UpdateMinMaxChDataRate@i                                  cstackBANK0  000065
UpdateReceiveDelays@delay                                 cstackBANK0  00006A
UpdateReceiveWindow2Parameters@dataRate                   cstackBANK0  000068
UpdateReceiveWindow2Parameters@frequency                  cstackBANK0  000064
UpdateTxPower@txPowerNew                                  cstackBANK0  000064
ValidateChannelId@allowedForDefaultChannels               cstackBANK0  000064
ValidateChannelId@channelId                               cstackBANK0  000066
ValidateChannelId@result                                  cstackBANK0  000065
ValidateChannelMask@channelMask                           cstackBANK0  000064
ValidateChannelMask@i                                     cstackBANK0  000066
ValidateChannelMaskCntl@channelMaskCntl                   cstackBANK0  000065
ValidateChannelMaskCntl@result                            cstackBANK0  000064
ValidateDataRange@dataRangeNew                            cstackBANK0  000067
ValidateDataRange@dataRateMax                             cstackBANK0  000068
ValidateDataRange@dataRateMin                             cstackBANK0  000069
ValidateDataRange@result                                  cstackBANK0  000066
ValidateDataRate@dataRate                                 cstackBANK0  000064
ValidateDataRate@result                                   cstackBANK0  000065
ValidateFrequency@frequencyNew                            cstackBANK0  000064
ValidateFrequency@result                                  cstackBANK0  000068
ValidateRxOffset@result                                   cstackBANK0  000065
ValidateRxOffset@rxOffset                                 cstackBANK0  000064
ValidateTxPower@result                                    cstackBANK0  000064
ValidateTxPower@txPowerNew                                cstackBANK0  000065
_AESCmac                                                  text146      0011E8
_AESEncode                                                text150      001766
_AESEncode$3784                                           cstackBANK0  000085
_AESEncode$3785                                           cstackBANK0  000087
_AESEncode$3786                                           cstackBANK0  000089
_AESEncodeLoRa                                            text149      005CF4
_ANSELA                                                   (abs)        000E92
_ANSELB                                                   (abs)        000E9A
_ANSELD                                                   (abs)        000EA7
_ANSELE                                                   (abs)        000EAF
_ANSELF                                                   (abs)        000EB4
_ANSELG                                                   (abs)        000EBC
_AckRetransmissionCallback                                text35       003268
_AssembleEncryptionBlock                                  text100      004380
_AssemblePacket                                           text95       0014C0
_AutomaticReplyCallback                                   text34       005F64
_BAUD1CON                                                 (abs)        000F9E
_Channels                                                 bssBANK4     000400
_CheckFlags                                               text106      0054FE
_CheckMcastFlags                                          text105      0050E8
_ComputeMic                                               text145      00523E
_ComputeSessionKeys                                       text103      004C66
_ConfigureRadio                                           text129      004940
_ConfigureRadioRx                                         text119      005CCE
_ConfigureRadioTx                                         text125      0056EC
_CountfOptsLength                                         text101      00483A
_CreateAllSoftwareTimers                                  text194      005290
_DIO0_ISR_Lora                                            (abs)        000000
_DIO0_ISR_Lora_Init                                       text19       006284
_DIO1_ISR_Lora                                            (abs)        000000
_DIO1_ISR_Lora_Init                                       text18       006280
_DIO2_ISR_Lora                                            (abs)        000000
_DIO2_ISR_Lora_Init                                       text17       006208
_DIO3_ISR_Lora_Init                                       text16       00629E
_DIO4_ISR_Lora_Init                                       text15       00629C
_DIO5_ISR_Lora                                            (abs)        000000
_DIO5_ISR_Lora_Init                                       text14       00627C
_DefaultChannels433                                       mediumconst  00FFA8
_DefaultChannels868                                       mediumconst  00FFD2
_DutyCycleCallback                                        text32       001BC8
_EUSART1_Initialize                                       text26       006072
_EXT_INT_Initialize                                       text21       0054B4
_EnableChannels                                           text88       00609E
_EnableChannels1                                          text89       005090
_EncKeySchedule                                           text152      002BFA
_EncKeySchedule$3770                                      cstackBANK0  000068
_EncodeShiftRow                                           text151      003A3E
_EncryptFRMPayload                                        text99       002D1E
_ExecuteDevStatus                                         text92       0061BA
_ExecuteDutyCycle                                         text91       005332
_ExecuteLinkAdr                                           text81       002ABA
_ExecuteLinkCheck                                         text80       005B82
_ExecuteNewChannel                                        text72       00268A
_ExecuteRxParamSetupReq                                   text69       003062
_ExecuteRxTimingSetup                                     text66       005D64
_ExtractMic                                               text102      005770
_FillSubKey                                               text148      005548
_FindSmallestDataRate                                     text98       0047B4
_FskSyncWordBuff                                          mediumconst  00FFFC
_GIE                                                      (abs)        007F97
_GenerateSubkey                                           text147      00344E
_GetRx1Freq                                               text42       006118
_HALDIO5PinValue                                          text165      006266
_HALResetPinMakeInput                                     text177      006298
_HALResetPinMakeOutput                                    text176      006294
_HALResetPinOutputValue                                   text175      0060F2
_HALSPICSAssert                                           text172      006290
_HALSPICSDeassert                                         text171      00628C
_HALSPISend                                               text169      0061F6
_INT0PPSbits                                              (abs)        000DF0
_INT0_DefaultInterruptHandler                             (abs)        000000
_INT0_SetInterruptHandler                                 text25       0062A2
_INT1PPSbits                                              (abs)        000DF1
_INT1_CallBack                                            text213      005F48
_INT1_DefaultInterruptHandler                             text214      0062AC
_INT1_ISR                                                 text212      006272
_INT1_InterruptHandler                                    nvBANK1      0001ED
_INT1_SetInterruptHandler                                 text24       0061B0
_INT2PPSbits                                              (abs)        000DF2
_INT2_CallBack                                            text210      005F2C
_INT2_DefaultInterruptHandler                             text211      0062AA
_INT2_ISR                                                 text209      00626C
_INT2_InterruptHandler                                    nvBANK1      0001EF
_INT2_SetInterruptHandler                                 text23       0061A6
_INT3PPSbits                                              (abs)        000DF3
_INT3_DefaultInterruptHandler                             (abs)        000000
_INT3_SetInterruptHandler                                 text22       0062A0
_INTCONbits                                               (abs)        000FF2
_INTERRUPT_GetDioStatus                                   text120      00615E
_INTERRUPT_Initialize                                     text20       006288
_INTERRUPT_InterruptManager                               intcode      000008
_IOCBF4_DefaultInterruptHandler                           text208      0062A8
_IOCBF4_ISR                                               text207      005DAC
_IOCBF4_InterruptHandler                                  nvBANK1      0001F1
_IOCBF4_SetInterruptHandler                               text8        006192
_IOCBFbits                                                (abs)        000E93
_IOCBNbits                                                (abs)        000E94
_IOCBPbits                                                (abs)        000E95
_IncludeMacCommandsResponse                               text96       001FC8
_InitDefault433Channels                                   text191      005036
_InitDefault868Channels                                   text190      005592
_JoinedServer                                             bssBANK1     000172
_LATA                                                     (abs)        000F79
_LATAbits                                                 (abs)        000F79
_LATB                                                     (abs)        000F7A
_LATC                                                     (abs)        000F7B
_LATC2                                                    (abs)        007BDA
_LATD                                                     (abs)        000F7C
_LATD3                                                    (abs)        007BE3
_LATE                                                     (abs)        000F7D
_LATF                                                     (abs)        000F7E
_LATG                                                     (abs)        000F7F
_LATH                                                     (abs)        000F80
_LORAWAN_EnterContinuousReceive                           text112      004EC0
_LORAWAN_GetMaxPayloadSize                                text94       005828
_LORAWAN_Init                                             text153      00541C
_LORAWAN_Join                                             text121      004728
_LORAWAN_LinkCheckCallback                                text36       002F54
_LORAWAN_LinkCheckConfigure                               text178      003168
_LORAWAN_LinkCheckConfigure$3290                          cstackBANK0  0000A6
_LORAWAN_Mainloop                                         text30       0057EC
_LORAWAN_PlatformInit                                     text10       005E54
_LORAWAN_ReceiveWindow1Callback                           text37       004424
_LORAWAN_ReceiveWindow2Callback                           text38       003E04
_LORAWAN_Reset                                            text157      0027FE
_LORAWAN_RxDone                                           text57       00008A
_LORAWAN_RxTimeout                                        text56       00199C
_LORAWAN_Send                                             text93       003F70
_LORAWAN_SetApplicationSessionKey                         text29       005A44
_LORAWAN_SetChannelIdStatus                               text78       005AA0
_LORAWAN_SetDeviceAddress                                 text28       005FB2
_LORAWAN_SetNetworkSessionKey                             text27       005C5A
_LORAWAN_TxDone                                           text108      0008EA
_LORAWAN_TxDone$1952                                      cstackBANK0  0000BE
_LORAWAN_TxDone$1953                                      cstackBANK0  0000C2
_LORAWAN_TxDone$5204                                      cstackBANK0  0000CB
_MacExecuteCommands                                       text65       002502
_ODCONA                                                   (abs)        000E90
_ODCONB                                                   (abs)        000E98
_ODCONC                                                   (abs)        000EA0
_ODCOND                                                   (abs)        000EA5
_ODCONE                                                   (abs)        000EAD
_ODCONF                                                   (abs)        000EB2
_ODCONG                                                   (abs)        000EBA
_ODCONH                                                   (abs)        000EBF
_OSCCON1                                                  (abs)        000E43
_OSCCON3                                                  (abs)        000E45
_OSCEN                                                    (abs)        000E47
_OSCFRQ                                                   (abs)        000E49
_OSCILLATOR_Initialize                                    text9        006106
_OSCTUNE                                                  (abs)        000E48
_PIE0bits                                                 (abs)        000E29
_PIE5bits                                                 (abs)        000E2E
_PIN_MANAGER_IOC                                          text206      006240
_PIN_MANAGER_Initialize                                   text7        003530
_PIR0bits                                                 (abs)        000E33
_PIR5bits                                                 (abs)        000E38
_PORTBbits                                                (abs)        000F8A
_PPSLOCK                                                  (abs)        000DEF
_PPSLOCKbits                                              (abs)        000DEF
_PrepareJoinRequestFrame                                  text141      002E40
_PrepareSessionKeys                                       text104      004FDA
_RADIO_DIO0                                               text50       004D34
_RADIO_DIO1                                               text47       005864
_RADIO_DIO2                                               text46       0055DC
_RADIO_DIO3                                               text45       005FFA
_RADIO_DIO4                                               text44       005FE2
_RADIO_DIO5                                               text43       005FCA
_RADIO_FHSSChangeChannel                                  text49       005A72
_RADIO_FSKPacketSent                                      text107      003364
_RADIO_FSKPacketSent$1075                                 cstackBANK0  0000DC
_RADIO_FSKPayloadReady                                    text55       004566
_RADIO_GetPacketSnr                                       text97       006254
_RADIO_GetStatus                                          text111      00625A
_RADIO_Init                                               text161      00236A
_RADIO_ReadRandom                                         text156      0049BA
_RADIO_ReceiveStart                                       text118      0021AC
_RADIO_ReceiveStart$1059                                  cstackBANK0  0000B0
_RADIO_ReceiveStop                                        text117      00602A
_RADIO_RegisterRead                                       text164      005D1A
_RADIO_RegisterWrite                                      text168      005EF2
_RADIO_ReleaseData                                        text116      006260
_RADIO_Reset                                              text173      005AFC
_RADIO_RxDone                                             text53       003EBA
_RADIO_RxFSKTimeout                                       text40       005978
_RADIO_RxTimeout                                          text48       005B2A
_RADIO_SetBandwidth                                       text135      006238
_RADIO_SetCRC                                             text128      0061D8
_RADIO_SetChannelFrequency                                text134      0048BE
_RADIO_SetFSKSyncWord                                     text133      005BAE
_RADIO_SetFrequencyHopPeriod                              text132      0061E2
_RADIO_SetIQInverted                                      text127      0061CE
_RADIO_SetLoRaSyncWord                                    text160      0061EC
_RADIO_SetModulation                                      text131      006230
_RADIO_SetOutputPower                                     text126      006220
_RADIO_SetSpreadingFactor                                 text130      006228
_RADIO_Transmit                                           text136      001DE0
_RADIO_Transmit$1056                                      cstackBANK0  0000B5
_RADIO_TxDone                                             text52       0044C6
_RADIO_TxDone$1071                                        cstackBANK0  0000DC
_RADIO_UnhandledInterrupt                                 text51       005E74
_RADIO_WatchdogTimeout                                    text39       0058D6
_RADIO_WriteConfiguration                                 text137      000DB6
_RADIO_WriteFSKBitRate                                    text140      004DFC
_RADIO_WriteFSKFrequencyDeviation                         text139      004F20
_RADIO_WriteFrequency                                     text166      0037C4
_RADIO_WriteMode                                          text163      0036EA
_RADIO_WritePower                                         text138      003972
_RC1STA                                                   (abs)        000F9C
_RC6PPS                                                   (abs)        000E68
_RD5PPS                                                   (abs)        000E6F
_RD6PPS                                                   (abs)        000E70
_RadioConfiguration                                       bssBANK1     000175
_Random                                                   text142      005DF2
_ResetParametersForConfirmedTransmission                  text115      00614E
_ResetParametersForUnconfirmedTransmission                text114      0061C4
_RxDataDone                                               text113      0062A4
_RxJoinResponse                                           text64       00624E
_SP1BRGH                                                  (abs)        000F9B
_SP1BRGL                                                  (abs)        000F9A
_SPI2_Exchange8bit                                        text170      00612A
_SPI2_Initialize                                          text6        00617A
_SSP2ADD                                                  (abs)        000ED6
_SSP2BUF                                                  (abs)        000ED5
_SSP2CON1                                                 (abs)        000ED9
_SSP2CON1bits                                             (abs)        000ED9
_SSP2DATPPSbits                                           (abs)        000E1D
_SSP2STAT                                                 (abs)        000ED8
_SSP2STATbits                                             (abs)        000ED8
_STable                                                   mediumconst  00FE6D
_SYSTEM_Initialize                                        text3        005E34
_SearchAvailableChannel                                   text124      004022
_SelectChannelForTransmission                             text123      004D98
_SetCallbackSoftwareTimers                                text155      004182
_SetJoinFailState                                         text63       005D40
_SetReceptionNotOkState                                   text62       004CCE
_StartReTxTimer                                           text61       00360E
_StopAllSoftwareTimers                                    text159      0053CE
_SwTimerCreate                                            text195      005624
_SwTimerIsRunning                                         text110      0060B4
_SwTimerReadValue                                         text109      0059E0
_SwTimerSetCallback                                       text162      005BDA
_SwTimerSetTimeout                                        text189      00589E
_SwTimerStart                                             text182      004BFC
_SwTimerStop                                              text181      00613C
_SwTimersExecute                                          text31       00469A
_SwTimersInterrupt                                        text186      003D4C
_SystemBlockingWaitMs                                     text174      005C06
_SystemTimerInit                                          text13       006248
_T1CLK                                                    (abs)        000FD2
_T1CON                                                    (abs)        000FCF
_T1CONbits                                                (abs)        000FCF
_T1GATE                                                   (abs)        000FD1
_T1GCON                                                   (abs)        000FD0
_TMR1H                                                    (abs)        000FCE
_TMR1L                                                    (abs)        000FCD
_TMR1_CallBack                                            text198      005F10
_TMR1_DefaultInterruptHandler                             text199      0062A6
_TMR1_ISR                                                 text197      005D88
_TMR1_Initialize                                          text4        0056AA
_TMR1_InterruptHandler                                    nvBANK1      0001F3
_TMR1_ReadTimer                                           text188      005E94
_TMR1_SetInterruptHandler                                 text12       00619C
_TMR1_StartTimer                                          text5        006278
_TMR1_WriteTimer                                          text185      006042
_TMR_GetDeltaTime                                         text187      00422E
_TMR_ISR_Lora_Init                                        text11       006186
_TMR_ISR_lora                                             text200      0052E2
_TMR_OverrideRemaining                                    text183      004A32
_TMR_SwapTimer                                            text184      005942
_TRISA                                                    (abs)        000F81
_TRISB                                                    (abs)        000F82
_TRISC                                                    (abs)        000F83
_TRISC2                                                   (abs)        007C1A
_TRISD                                                    (abs)        000F84
_TRISE                                                    (abs)        000F85
_TRISF                                                    (abs)        000F86
_TRISG                                                    (abs)        000F87
_TRISH                                                    (abs)        000F88
_TX1STA                                                   (abs)        000F9D
_UnconfirmedTransmissionCallback                          text41       004B20
_UpdateCfList                                             text60       002964
_UpdateChannelIdStatus                                    text90       003B08
_UpdateCurrentDataRate                                    text87       006218
_UpdateDLSettings                                         text59       005F7E
_UpdateDataRange                                          text77       0042D8
_UpdateDutyCycle                                          text76       005B56
_UpdateFrequency                                          text75       005CA8
_UpdateJoinInProgress                                     text122      005F98
_UpdateJoinSuccessState                                   text33       003BD0
_UpdateMinMaxChDataRate                                   text158      004B92
_UpdateReceiveDelays                                      text67       00590C
_UpdateReceiveWindow2Parameters                           text71       006088
_UpdateRetransmissionAckTimeoutState                      text58       005198
_UpdateTxPower                                            text86       006210
_ValidateChannelId                                        text79       005ED4
_ValidateChannelMask                                      text85       005ACE
_ValidateChannelMaskCntl                                  text84       006012
_ValidateDataRange                                        text74       0059AC
_ValidateDataRate                                         text83       0060DE
_ValidateFrequency                                        text73       004F7E
_ValidateRxOffset                                         text70       0060CA
_ValidateTxPower                                          text82       005DD0
_WPUA                                                     (abs)        000E91
_WPUB                                                     (abs)        000E99
_WPUC                                                     (abs)        000EA1
_WPUD                                                     (abs)        000EA6
_WPUE                                                     (abs)        000EAE
_WPUF                                                     (abs)        000EB3
_WPUG                                                     (abs)        000EBB
_WPUH                                                     (abs)        000EC0
__CFG_BOREN$SBORDIS                                       (abs)        000000
__CFG_BORV$VBOR_190                                       (abs)        000000
__CFG_CLKOUTEN$OFF                                        (abs)        000000
__CFG_CP$OFF                                              (abs)        000000
__CFG_CPD$OFF                                             (abs)        000000
__CFG_CSWEN$ON                                            (abs)        000000
__CFG_DEBUG$OFF                                           (abs)        000000
__CFG_EBTR0$OFF                                           (abs)        000000
__CFG_EBTR1$OFF                                           (abs)        000000
__CFG_EBTR2$OFF                                           (abs)        000000
__CFG_EBTR3$OFF                                           (abs)        000000
__CFG_EBTRB$OFF                                           (abs)        000000
__CFG_FCMEN$ON                                            (abs)        000000
__CFG_FEXTOSC$OFF                                         (abs)        000000
__CFG_LPBOREN$OFF                                         (abs)        000000
__CFG_LVP$ON                                              (abs)        000000
__CFG_MCLRE$EXTMCLR                                       (abs)        000000
__CFG_PPS1WAY$ON                                          (abs)        000000
__CFG_PWRTE$OFF                                           (abs)        000000
__CFG_RSTOSC$HFINTOSC_64MHZ                               (abs)        000000
__CFG_SCANE$ON                                            (abs)        000000
__CFG_STVREN$ON                                           (abs)        000000
__CFG_WDTCCS$SC                                           (abs)        000000
__CFG_WDTCPS$WDTCPS_31                                    (abs)        000000
__CFG_WDTCWS$WDTCWS_7                                     (abs)        000000
__CFG_WDTE$OFF                                            (abs)        000000
__CFG_WRT0$OFF                                            (abs)        000000
__CFG_WRT1$OFF                                            (abs)        000000
__CFG_WRT2$OFF                                            (abs)        000000
__CFG_WRT3$OFF                                            (abs)        000000
__CFG_WRTB$OFF                                            (abs)        000000
__CFG_WRTC$OFF                                            (abs)        000000
__CFG_WRTD$OFF                                            (abs)        000000
__CFG_XINST$OFF                                           (abs)        000000
__CFG_ZCD$OFF                                             (abs)        000000
__HRAM                                                    (abs)        000000
__Habs1                                                   abs1         000000
__Hbank0                                                  bank0        000000
__Hbank1                                                  bank1        000000
__Hbank10                                                 bank10       000000
__Hbank11                                                 bank11       000000
__Hbank12                                                 bank12       000000
__Hbank13                                                 bank13       000000
__Hbank2                                                  bank2        000000
__Hbank3                                                  bank3        000000
__Hbank4                                                  bank4        000000
__Hbank5                                                  bank5        000000
__Hbank6                                                  bank6        000000
__Hbank7                                                  bank7        000000
__Hbank8                                                  bank8        000000
__Hbank9                                                  bank9        000000
__Hbigbss                                                 bigbss       000000
__Hbigdata                                                bigdata      000000
__Hbigram                                                 bigram       000000
__Hbss                                                    bss          000000
__HbssBANK1                                               bssBANK1     000000
__HbssBANK2                                               bssBANK2     000000
__HbssBANK3                                               bssBANK3     000000
__HbssBANK4                                               bssBANK4     000000
__HbssBIGRAM                                              bssBIGRAM    000000
__HbssCOMRAM                                              bssCOMRAM    000000
__Hcinit                                                  cinit        000000
__Hclrtext                                                clrtext      000000
__Hcomram                                                 comram       000000
__Hconfig                                                 config       30000C
__Hconst                                                  const        000000
__HcstackBANK0                                            cstackBANK0  000000
__HcstackBANK1                                            cstackBANK1  000000
__HcstackBANK3                                            cstackBANK3  000000
__HcstackCOMRAM                                           cstackCOMRAM 000000
__Hdata                                                   data         000000
__HdataBANK1                                              dataBANK1    000000
__HdataCOMRAM                                             dataCOMRAM   000000
__Heeprom_data                                            eeprom_data  000000
__Hend_init                                               end_init     00008A
__Hfarbss                                                 farbss       000000
__Hfardata                                                fardata      000000
__Hibigdata                                               ibigdata     000000
__Hidata                                                  idata        000000
__HidataBANK1                                             idataBANK1   000000
__HidataCOMRAM                                            idataCOMRAM  000000
__Hidloc                                                  idloc        200010
__Hifardata                                               ifardata     000000
__Hinit                                                   init         000086
__Hintcode                                                intcode      000082
__Hintcode_body                                           intcode_body 000000
__Hintcodelo                                              intcodelo    000082
__Hintentry                                               intentry     000000
__Hintret                                                 intret       000000
__Hintsave_regs                                           intsave_regs 000000
__Hirdata                                                 irdata       000000
__Hmediumconst                                            mediumconst  010000
__HnvBANK1                                                nvBANK1      000000
__HnvCOMRAM                                               nvCOMRAM     000000
__HnvFARRAM                                               nvFARRAM     000000
__Hnvbit                                                  nvbit        000000
__Hnvrram                                                 nvrram       000000
__Hpa_nodes                                               pa_nodes     000000
__Hparam                                                  rparam       000000
__Hpowerup                                                powerup      000082
__Hram                                                    ram          000000
__Hramtop                                                 ramtop       000E00
__Hrbit                                                   rbit         000000
__Hrbss                                                   rbss         000000
__Hrdata                                                  rdata        000000
__Hreset_vec                                              reset_vec    000004
__Hrparam                                                 rparam       000000
__Hsfr                                                    sfr          000000
__Hsmallconst                                             smallconst   000000
__Hspace_0                                                (abs)        30000C
__Hspace_1                                                (abs)        0006FE
__Hspace_2                                                (abs)        000DDE
__Hstack                                                  stack        000DDE
__Hstruct                                                 struct       000000
__Htemp                                                   temp         000056
__Htext                                                   text         000000
__Htext0                                                  text0        000000
__Htext1                                                  text1        000000
__Htext10                                                 text10       000000
__Htext100                                                text100      000000
__Htext101                                                text101      000000
__Htext102                                                text102      000000
__Htext103                                                text103      000000
__Htext104                                                text104      000000
__Htext105                                                text105      000000
__Htext106                                                text106      000000
__Htext107                                                text107      000000
__Htext108                                                text108      000000
__Htext109                                                text109      000000
__Htext11                                                 text11       000000
__Htext110                                                text110      000000
__Htext111                                                text111      000000
__Htext112                                                text112      000000
__Htext113                                                text113      000000
__Htext114                                                text114      000000
__Htext115                                                text115      000000
__Htext116                                                text116      000000
__Htext117                                                text117      000000
__Htext118                                                text118      000000
__Htext119                                                text119      000000
__Htext12                                                 text12       000000
__Htext120                                                text120      000000
__Htext121                                                text121      000000
__Htext122                                                text122      000000
__Htext123                                                text123      000000
__Htext124                                                text124      000000
__Htext125                                                text125      000000
__Htext126                                                text126      000000
__Htext127                                                text127      000000
__Htext128                                                text128      000000
__Htext129                                                text129      000000
__Htext13                                                 text13       000000
__Htext130                                                text130      000000
__Htext131                                                text131      000000
__Htext132                                                text132      000000
__Htext133                                                text133      000000
__Htext134                                                text134      000000
__Htext135                                                text135      000000
__Htext136                                                text136      000000
__Htext137                                                text137      000000
__Htext138                                                text138      000000
__Htext139                                                text139      000000
__Htext14                                                 text14       000000
__Htext140                                                text140      000000
__Htext141                                                text141      000000
__Htext142                                                text142      000000
__Htext143                                                text143      000000
__Htext144                                                text144      000000
__Htext145                                                text145      000000
__Htext146                                                text146      000000
__Htext147                                                text147      000000
__Htext148                                                text148      000000
__Htext149                                                text149      000000
__Htext15                                                 text15       000000
__Htext150                                                text150      000000
__Htext151                                                text151      000000
__Htext152                                                text152      000000
__Htext153                                                text153      000000
__Htext154                                                text154      000000
__Htext155                                                text155      000000
__Htext156                                                text156      000000
__Htext157                                                text157      000000
__Htext158                                                text158      000000
__Htext159                                                text159      000000
__Htext16                                                 text16       000000
__Htext160                                                text160      000000
__Htext161                                                text161      000000
__Htext162                                                text162      000000
__Htext163                                                text163      000000
__Htext164                                                text164      000000
__Htext165                                                text165      000000
__Htext166                                                text166      000000
__Htext167                                                text167      000000
__Htext168                                                text168      000000
__Htext169                                                text169      000000
__Htext17                                                 text17       000000
__Htext170                                                text170      000000
__Htext171                                                text171      000000
__Htext172                                                text172      000000
__Htext173                                                text173      000000
__Htext174                                                text174      000000
__Htext175                                                text175      000000
__Htext176                                                text176      000000
__Htext177                                                text177      000000
__Htext178                                                text178      000000
__Htext179                                                text179      000000
__Htext18                                                 text18       000000
__Htext180                                                text180      000000
__Htext181                                                text181      000000
__Htext182                                                text182      000000
__Htext183                                                text183      000000
__Htext184                                                text184      000000
__Htext185                                                text185      000000
__Htext186                                                text186      000000
__Htext187                                                text187      000000
__Htext188                                                text188      000000
__Htext189                                                text189      000000
__Htext19                                                 text19       000000
__Htext190                                                text190      000000
__Htext191                                                text191      000000
__Htext192                                                text192      000000
__Htext193                                                text193      000000
__Htext194                                                text194      000000
__Htext195                                                text195      000000
__Htext197                                                text197      000000
__Htext198                                                text198      000000
__Htext199                                                text199      000000
__Htext2                                                  text2        000000
__Htext20                                                 text20       000000
__Htext200                                                text200      000000
__Htext201                                                text201      000000
__Htext202                                                text202      000000
__Htext203                                                text203      000000
__Htext204                                                text204      000000
__Htext205                                                text205      000000
__Htext206                                                text206      000000
__Htext207                                                text207      000000
__Htext208                                                text208      000000
__Htext209                                                text209      000000
__Htext21                                                 text21       000000
__Htext210                                                text210      000000
__Htext211                                                text211      000000
__Htext212                                                text212      000000
__Htext213                                                text213      000000
__Htext214                                                text214      000000
__Htext215                                                text215      000000
__Htext22                                                 text22       000000
__Htext23                                                 text23       000000
__Htext24                                                 text24       000000
__Htext25                                                 text25       000000
__Htext26                                                 text26       000000
__Htext27                                                 text27       000000
__Htext28                                                 text28       000000
__Htext29                                                 text29       000000
__Htext3                                                  text3        000000
__Htext30                                                 text30       000000
__Htext31                                                 text31       000000
__Htext32                                                 text32       000000
__Htext33                                                 text33       000000
__Htext34                                                 text34       000000
__Htext35                                                 text35       000000
__Htext36                                                 text36       000000
__Htext37                                                 text37       000000
__Htext38                                                 text38       000000
__Htext39                                                 text39       000000
__Htext4                                                  text4        000000
__Htext40                                                 text40       000000
__Htext41                                                 text41       000000
__Htext42                                                 text42       000000
__Htext43                                                 text43       000000
__Htext44                                                 text44       000000
__Htext45                                                 text45       000000
__Htext46                                                 text46       000000
__Htext47                                                 text47       000000
__Htext48                                                 text48       000000
__Htext49                                                 text49       000000
__Htext5                                                  text5        000000
__Htext50                                                 text50       000000
__Htext51                                                 text51       000000
__Htext52                                                 text52       000000
__Htext53                                                 text53       000000
__Htext54                                                 text54       000000
__Htext55                                                 text55       000000
__Htext56                                                 text56       000000
__Htext57                                                 text57       000000
__Htext58                                                 text58       000000
__Htext59                                                 text59       000000
__Htext6                                                  text6        000000
__Htext60                                                 text60       000000
__Htext61                                                 text61       000000
__Htext62                                                 text62       000000
__Htext63                                                 text63       000000
__Htext64                                                 text64       000000
__Htext65                                                 text65       000000
__Htext66                                                 text66       000000
__Htext67                                                 text67       000000
__Htext68                                                 text68       000000
__Htext69                                                 text69       000000
__Htext7                                                  text7        000000
__Htext70                                                 text70       000000
__Htext71                                                 text71       000000
__Htext72                                                 text72       000000
__Htext73                                                 text73       000000
__Htext74                                                 text74       000000
__Htext75                                                 text75       000000
__Htext76                                                 text76       000000
__Htext77                                                 text77       000000
__Htext78                                                 text78       000000
__Htext79                                                 text79       000000
__Htext8                                                  text8        000000
__Htext80                                                 text80       000000
__Htext81                                                 text81       000000
__Htext82                                                 text82       000000
__Htext83                                                 text83       000000
__Htext84                                                 text84       000000
__Htext85                                                 text85       000000
__Htext86                                                 text86       000000
__Htext87                                                 text87       000000
__Htext88                                                 text88       000000
__Htext89                                                 text89       000000
__Htext9                                                  text9        000000
__Htext90                                                 text90       000000
__Htext91                                                 text91       000000
__Htext92                                                 text92       000000
__Htext93                                                 text93       000000
__Htext94                                                 text94       000000
__Htext95                                                 text95       000000
__Htext96                                                 text96       000000
__Htext97                                                 text97       000000
__Htext98                                                 text98       000000
__Htext99                                                 text99       000000
__LRAM                                                    (abs)        000001
__Labs1                                                   abs1         000000
__Lbank0                                                  bank0        000000
__Lbank1                                                  bank1        000000
__Lbank10                                                 bank10       000000
__Lbank11                                                 bank11       000000
__Lbank12                                                 bank12       000000
__Lbank13                                                 bank13       000000
__Lbank2                                                  bank2        000000
__Lbank3                                                  bank3        000000
__Lbank4                                                  bank4        000000
__Lbank5                                                  bank5        000000
__Lbank6                                                  bank6        000000
__Lbank7                                                  bank7        000000
__Lbank8                                                  bank8        000000
__Lbank9                                                  bank9        000000
__Lbigbss                                                 bigbss       000000
__Lbigdata                                                bigdata      000000
__Lbigram                                                 bigram       000000
__Lbss                                                    bss          000000
__LbssBANK1                                               bssBANK1     000000
__LbssBANK2                                               bssBANK2     000000
__LbssBANK3                                               bssBANK3     000000
__LbssBANK4                                               bssBANK4     000000
__LbssBIGRAM                                              bssBIGRAM    000000
__LbssCOMRAM                                              bssCOMRAM    000000
__Lcinit                                                  cinit        000000
__Lclrtext                                                clrtext      000000
__Lcomram                                                 comram       000000
__Lconfig                                                 config       300000
__Lconst                                                  const        000000
__LcstackBANK0                                            cstackBANK0  000000
__LcstackBANK1                                            cstackBANK1  000000
__LcstackBANK3                                            cstackBANK3  000000
__LcstackCOMRAM                                           cstackCOMRAM 000000
__Ldata                                                   data         000000
__LdataBANK1                                              dataBANK1    000000
__LdataCOMRAM                                             dataCOMRAM   000000
__Leeprom_data                                            eeprom_data  000000
__Lend_init                                               end_init     000086
__Lfarbss                                                 farbss       000000
__Lfardata                                                fardata      000000
__Libigdata                                               ibigdata     000000
__Lidata                                                  idata        000000
__LidataBANK1                                             idataBANK1   000000
__LidataCOMRAM                                            idataCOMRAM  000000
__Lidloc                                                  idloc        200000
__Lifardata                                               ifardata     000000
__Linit                                                   init         000082
__Lintcode                                                intcode      000008
__Lintcode_body                                           intcode_body 000000
__Lintcodelo                                              intcodelo    000082
__Lintentry                                               intentry     000000
__Lintret                                                 intret       000000
__Lintsave_regs                                           intsave_regs 000000
__Lirdata                                                 irdata       000000
__Lmediumconst                                            mediumconst  00FE6C
__LnvBANK1                                                nvBANK1      000000
__LnvCOMRAM                                               nvCOMRAM     000000
__LnvFARRAM                                               nvFARRAM     000000
__Lnvbit                                                  nvbit        000000
__Lnvrram                                                 nvrram       000000
__Lpa_nodes                                               pa_nodes     000000
__Lparam                                                  rparam       000000
__Lpowerup                                                powerup      000082
__Lram                                                    ram          000000
__Lramtop                                                 ramtop       000E00
__Lrbit                                                   rbit         000000
__Lrbss                                                   rbss         000000
__Lrdata                                                  rdata        000000
__Lreset_vec                                              reset_vec    000000
__Lrparam                                                 rparam       000000
__Lsfr                                                    sfr          000000
__Lsmallconst                                             smallconst   000000
__Lspace_0                                                (abs)        000000
__Lspace_1                                                (abs)        000000
__Lspace_2                                                (abs)        000000
__Lstack                                                  stack        0006FE
__Lstruct                                                 struct       000000
__Ltemp                                                   temp         00004A
__Ltext                                                   text         000000
__Ltext0                                                  text0        000000
__Ltext1                                                  text1        000000
__Ltext10                                                 text10       000000
__Ltext100                                                text100      000000
__Ltext101                                                text101      000000
__Ltext102                                                text102      000000
__Ltext103                                                text103      000000
__Ltext104                                                text104      000000
__Ltext105                                                text105      000000
__Ltext106                                                text106      000000
__Ltext107                                                text107      000000
__Ltext108                                                text108      000000
__Ltext109                                                text109      000000
__Ltext11                                                 text11       000000
__Ltext110                                                text110      000000
__Ltext111                                                text111      000000
__Ltext112                                                text112      000000
__Ltext113                                                text113      000000
__Ltext114                                                text114      000000
__Ltext115                                                text115      000000
__Ltext116                                                text116      000000
__Ltext117                                                text117      000000
__Ltext118                                                text118      000000
__Ltext119                                                text119      000000
__Ltext12                                                 text12       000000
__Ltext120                                                text120      000000
__Ltext121                                                text121      000000
__Ltext122                                                text122      000000
__Ltext123                                                text123      000000
__Ltext124                                                text124      000000
__Ltext125                                                text125      000000
__Ltext126                                                text126      000000
__Ltext127                                                text127      000000
__Ltext128                                                text128      000000
__Ltext129                                                text129      000000
__Ltext13                                                 text13       000000
__Ltext130                                                text130      000000
__Ltext131                                                text131      000000
__Ltext132                                                text132      000000
__Ltext133                                                text133      000000
__Ltext134                                                text134      000000
__Ltext135                                                text135      000000
__Ltext136                                                text136      000000
__Ltext137                                                text137      000000
__Ltext138                                                text138      000000
__Ltext139                                                text139      000000
__Ltext14                                                 text14       000000
__Ltext140                                                text140      000000
__Ltext141                                                text141      000000
__Ltext142                                                text142      000000
__Ltext143                                                text143      000000
__Ltext144                                                text144      000000
__Ltext145                                                text145      000000
__Ltext146                                                text146      000000
__Ltext147                                                text147      000000
__Ltext148                                                text148      000000
__Ltext149                                                text149      000000
__Ltext15                                                 text15       000000
__Ltext150                                                text150      000000
__Ltext151                                                text151      000000
__Ltext152                                                text152      000000
__Ltext153                                                text153      000000
__Ltext154                                                text154      000000
__Ltext155                                                text155      000000
__Ltext156                                                text156      000000
__Ltext157                                                text157      000000
__Ltext158                                                text158      000000
__Ltext159                                                text159      000000
__Ltext16                                                 text16       000000
__Ltext160                                                text160      000000
__Ltext161                                                text161      000000
__Ltext162                                                text162      000000
__Ltext163                                                text163      000000
__Ltext164                                                text164      000000
__Ltext165                                                text165      000000
__Ltext166                                                text166      000000
__Ltext167                                                text167      000000
__Ltext168                                                text168      000000
__Ltext169                                                text169      000000
__Ltext17                                                 text17       000000
__Ltext170                                                text170      000000
__Ltext171                                                text171      000000
__Ltext172                                                text172      000000
__Ltext173                                                text173      000000
__Ltext174                                                text174      000000
__Ltext175                                                text175      000000
__Ltext176                                                text176      000000
__Ltext177                                                text177      000000
__Ltext178                                                text178      000000
__Ltext179                                                text179      000000
__Ltext18                                                 text18       000000
__Ltext180                                                text180      000000
__Ltext181                                                text181      000000
__Ltext182                                                text182      000000
__Ltext183                                                text183      000000
__Ltext184                                                text184      000000
__Ltext185                                                text185      000000
__Ltext186                                                text186      000000
__Ltext187                                                text187      000000
__Ltext188                                                text188      000000
__Ltext189                                                text189      000000
__Ltext19                                                 text19       000000
__Ltext190                                                text190      000000
__Ltext191                                                text191      000000
__Ltext192                                                text192      000000
__Ltext193                                                text193      000000
__Ltext194                                                text194      000000
__Ltext195                                                text195      000000
__Ltext197                                                text197      000000
__Ltext198                                                text198      000000
__Ltext199                                                text199      000000
__Ltext2                                                  text2        000000
__Ltext20                                                 text20       000000
__Ltext200                                                text200      000000
__Ltext201                                                text201      000000
__Ltext202                                                text202      000000
__Ltext203                                                text203      000000
__Ltext204                                                text204      000000
__Ltext205                                                text205      000000
__Ltext206                                                text206      000000
__Ltext207                                                text207      000000
__Ltext208                                                text208      000000
__Ltext209                                                text209      000000
__Ltext21                                                 text21       000000
__Ltext210                                                text210      000000
__Ltext211                                                text211      000000
__Ltext212                                                text212      000000
__Ltext213                                                text213      000000
__Ltext214                                                text214      000000
__Ltext215                                                text215      000000
__Ltext22                                                 text22       000000
__Ltext23                                                 text23       000000
__Ltext24                                                 text24       000000
__Ltext25                                                 text25       000000
__Ltext26                                                 text26       000000
__Ltext27                                                 text27       000000
__Ltext28                                                 text28       000000
__Ltext29                                                 text29       000000
__Ltext3                                                  text3        000000
__Ltext30                                                 text30       000000
__Ltext31                                                 text31       000000
__Ltext32                                                 text32       000000
__Ltext33                                                 text33       000000
__Ltext34                                                 text34       000000
__Ltext35                                                 text35       000000
__Ltext36                                                 text36       000000
__Ltext37                                                 text37       000000
__Ltext38                                                 text38       000000
__Ltext39                                                 text39       000000
__Ltext4                                                  text4        000000
__Ltext40                                                 text40       000000
__Ltext41                                                 text41       000000
__Ltext42                                                 text42       000000
__Ltext43                                                 text43       000000
__Ltext44                                                 text44       000000
__Ltext45                                                 text45       000000
__Ltext46                                                 text46       000000
__Ltext47                                                 text47       000000
__Ltext48                                                 text48       000000
__Ltext49                                                 text49       000000
__Ltext5                                                  text5        000000
__Ltext50                                                 text50       000000
__Ltext51                                                 text51       000000
__Ltext52                                                 text52       000000
__Ltext53                                                 text53       000000
__Ltext54                                                 text54       000000
__Ltext55                                                 text55       000000
__Ltext56                                                 text56       000000
__Ltext57                                                 text57       000000
__Ltext58                                                 text58       000000
__Ltext59                                                 text59       000000
__Ltext6                                                  text6        000000
__Ltext60                                                 text60       000000
__Ltext61                                                 text61       000000
__Ltext62                                                 text62       000000
__Ltext63                                                 text63       000000
__Ltext64                                                 text64       000000
__Ltext65                                                 text65       000000
__Ltext66                                                 text66       000000
__Ltext67                                                 text67       000000
__Ltext68                                                 text68       000000
__Ltext69                                                 text69       000000
__Ltext7                                                  text7        000000
__Ltext70                                                 text70       000000
__Ltext71                                                 text71       000000
__Ltext72                                                 text72       000000
__Ltext73                                                 text73       000000
__Ltext74                                                 text74       000000
__Ltext75                                                 text75       000000
__Ltext76                                                 text76       000000
__Ltext77                                                 text77       000000
__Ltext78                                                 text78       000000
__Ltext79                                                 text79       000000
__Ltext8                                                  text8        000000
__Ltext80                                                 text80       000000
__Ltext81                                                 text81       000000
__Ltext82                                                 text82       000000
__Ltext83                                                 text83       000000
__Ltext84                                                 text84       000000
__Ltext85                                                 text85       000000
__Ltext86                                                 text86       000000
__Ltext87                                                 text87       000000
__Ltext88                                                 text88       000000
__Ltext89                                                 text89       000000
__Ltext9                                                  text9        000000
__Ltext90                                                 text90       000000
__Ltext91                                                 text91       000000
__Ltext92                                                 text92       000000
__Ltext93                                                 text93       000000
__Ltext94                                                 text94       000000
__Ltext95                                                 text95       000000
__Ltext96                                                 text96       000000
__Ltext97                                                 text97       000000
__Ltext98                                                 text98       000000
__Ltext99                                                 text99       000000
__S0                                                      (abs)        30000C
__S1                                                      (abs)        0006FE
__S2                                                      (abs)        000DDE
___abdiv                                                  text54       0051EC
___abdiv@counter                                          cstackBANK0  000065
___abdiv@dividend                                         cstackBANK0  000068
___abdiv@divisor                                          cstackBANK0  000064
___abdiv@quotient                                         cstackBANK0  000067
___abdiv@sign                                             cstackBANK0  000066
___inthi_sp                                               stack        00094A
___intlo_sp                                               stack        000B94
___lldiv                                                  text180      004AAA
___lldiv@counter                                          cstackBANK0  000070
___lldiv@dividend                                         cstackBANK0  000064
___lldiv@divisor                                          cstackBANK0  000068
___lldiv@quotient                                         cstackBANK0  00006C
___llmod                                                  text167      004E5E
___llmod@counter                                          cstackBANK0  00006C
___llmod@dividend                                         cstackBANK0  000064
___llmod@divisor                                          cstackBANK0  000068
___lmul                                                   text179      005468
___lmul@multiplicand                                      cstackBANK0  000098
___lmul@multiplier                                        cstackBANK0  000094
___lmul@product                                           cstackBANK0  00009C
___lwmod                                                  text144      0057AE
___lwmod@counter                                          cstackBANK0  0000A6
___lwmod@dividend                                         cstackBANK0  0000A2
___lwmod@divisor                                          cstackBANK0  0000A4
___param_bank                                             (abs)        000010
___rparam_used                                            (abs)        000001
___sp                                                     stack        0006FE
___wmul                                                   text68       005C82
___wmul@multiplicand                                      cstackBANK0  000066
___wmul@multiplier                                        cstackBANK0  000064
___wmul@product                                           cstackBANK0  000068
__accesstop                                               (abs)        000060
__activetblptr                                            (abs)        000003
__end_ofPL10                                              text186      003E04
__end_ofPL100                                             text150      001926
__end_ofPL102                                             text57       000784
__end_ofPL104                                             text108      000DAE
__end_ofPL106                                             text57       000798
__end_ofPL108                                             text57       0007AC
__end_ofPL110                                             text150      00193A
__end_ofPL112                                             text32       001D90
__end_ofPL114                                             text32       001D9C
__end_ofPL116                                             text150      00195A
__end_ofPL118                                             text99       002E06
__end_ofPL12                                              text77       004380
__end_ofPL120                                             text32       001DBA
__end_ofPL122                                             text136      001F94
__end_ofPL124                                             text187      0042C8
__end_ofPL126                                             text204      003932
__end_ofPL128                                             text137      001190
__end_ofPL130                                             text100      0043EA
__end_ofPL132                                             text118      00234E
__end_ofPL134                                             text105      005140
__end_ofPL136                                             text204      00394E
__end_ofPL138                                             text108      000DB6
__end_ofPL14                                              text96       00218A
__end_ofPL140                                             text32       001DC4
__end_ofPL142                                             text100      0043F6
__end_ofPL144                                             text57       0007B8
__end_ofPL146                                             text57       0007D2
__end_ofPL148                                             text103      004CC2
__end_ofPL150                                             text38       003EB0
__end_ofPL152                                             text37       0044C6
__end_ofPL154                                             text146      001436
__end_ofPL156                                             text150      001964
__end_ofPL158                                             text162      005C06
__end_ofPL16                                              text96       00219A
__end_ofPL160                                             text145      005290
__end_ofPL162                                             text57       0007E2
__end_ofPL164                                             text106      005548
__end_ofPL166                                             text57       0007EA
__end_ofPL168                                             text57       0007F2
__end_ofPL170                                             text57       00080A
__end_ofPL172                                             text157      002930
__end_ofPL174                                             text94       005864
__end_ofPL176                                             text147      00351C
__end_ofPL178                                             text95       001718
__end_ofPL18                                              text90       003B9E
__end_ofPL180                                             text141      002F26
__end_ofPL182                                             text190      0055DC
__end_ofPL184                                             text90       003BA8
__end_ofPL186                                             text57       000820
__end_ofPL188                                             text191      00507C
__end_ofPL190                                             text141      002F3C
__end_ofPL192                                             text112      004F20
__end_ofPL194                                             text41       004B7A
__end_ofPL196                                             text118      00235A
__end_ofPL198                                             text57       00082E
__end_ofPL2                                               text81       002BE6
__end_ofPL20                                              text152      002CEC
__end_ofPL200                                             text100      004404
__end_ofPL202                                             text104      00502E
__end_ofPL204                                             text57       00083C
__end_ofPL206                                             text147      003530
__end_ofPL208                                             text204      003962
__end_ofPL210                                             text72       0027DC
__end_ofPL212                                             text57       000850
__end_ofPL214                                             text100      00440E
__end_ofPL216                                             text57       000864
__end_ofPL218                                             text95       00172C
__end_ofPL22                                              text108      000D3A
__end_ofPL220                                             text146      001440
__end_ofPL222                                             text95       00173E
__end_ofPL224                                             text161      002502
__end_ofPL226                                             text57       00086C
__end_ofPL228                                             text146      001450
__end_ofPL230                                             text32       001DD6
__end_ofPL232                                             text99       002E18
__end_ofPL234                                             text95       00174A
__end_ofPL236                                             text62       004D2A
__end_ofPL238                                             text107      00342A
__end_ofPL24                                              text57       0006FA
__end_ofPL240                                             text36       003062
__end_ofPL242                                             text163      0037BE
__end_ofPL244                                             text150      001970
__end_ofPL246                                             text150      00197C
__end_ofPL248                                             text166      00389C
__end_ofPL250                                             text95       001756
__end_ofPL252                                             text103      004CCE
__end_ofPL254                                             text56       001BB6
__end_ofPL256                                             text57       000876
__end_ofPL258                                             text187      0042D8
__end_ofPL26                                              text152      002CFA
__end_ofPL260                                             text150      00198C
__end_ofPL262                                             text99       002E28
__end_ofPL264                                             text57       000880
__end_ofPL266                                             text100      004416
__end_ofPL268                                             text107      003434
__end_ofPL270                                             text141      002F44
__end_ofPL272                                             text123      004DFC
__end_ofPL274                                             text55       0045F6
__end_ofPL276                                             text33       003C90
__end_ofPL278                                             text57       00088C
__end_ofPL28                                              text57       00070A
__end_ofPL280                                             text146      001458
__end_ofPL282                                             text141      002F54
__end_ofPL284                                             text204      003972
__end_ofPL286                                             text81       002BF0
__end_ofPL288                                             text41       004B84
__end_ofPL290                                             text57       000894
__end_ofPL292                                             text201      005770
__end_ofPL294                                             text57       0008A2
__end_ofPL296                                             text99       002E36
__end_ofPL298                                             text90       003BB4
__end_ofPL30                                              text60       002A90
__end_ofPL300                                             text80       005BAE
__end_ofPL302                                             text29       005A72
__end_ofPL304                                             text55       004604
__end_ofPL306                                             text100      004424
__end_ofPL308                                             text72       0027EA
__end_ofPL310                                             text41       004B92
__end_ofPL312                                             text146      001460
__end_ofPL314                                             text155      004222
__end_ofPL316                                             text150      001994
__end_ofPL318                                             text146      00146E
__end_ofPL32                                              text118      00233C
__end_ofPL320                                             text107      003442
__end_ofPL322                                             text90       003BBE
__end_ofPL324                                             text32       001DE0
__end_ofPL326                                             text146      001478
__end_ofPL328                                             text57       0008AC
__end_ofPL330                                             text72       0027F4
__end_ofPL332                                             text81       002BFA
__end_ofPL334                                             text57       0008B6
__end_ofPL336                                             text90       003BC8
__end_ofPL338                                             text72       0027FE
__end_ofPL34                                              text57       00071C
__end_ofPL340                                             text136      001FA0
__end_ofPL342                                             text137      00119C
__end_ofPL344                                             text146      001482
__end_ofPL346                                             text146      00148E
__end_ofPL348                                             text146      00149A
__end_ofPL350                                             text107      00344E
__end_ofPL352                                             text155      00422E
__end_ofPL354                                             text136      001FAC
__end_ofPL356                                             text57       0008C2
__end_ofPL358                                             text137      0011A8
__end_ofPL36                                              text31       004718
__end_ofPL360                                             text7        00360E
__end_ofPL362                                             text136      001FB8
__end_ofPL364                                             text157      00293C
__end_ofPL366                                             text150      00199C
__end_ofPL368                                             text157      002946
__end_ofPL370                                             text57       0008CC
__end_ofPL372                                             text137      0011B0
__end_ofPL374                                             text157      002950
__end_ofPL376                                             text157      00295A
__end_ofPL378                                             text115      00615E
__end_ofPL38                                              text107      00341E
__end_ofPL380                                             text95       00175E
__end_ofPL382                                             text95       001766
__end_ofPL384                                             text136      001FC2
__end_ofPL386                                             text156      004A24
__end_ofPL388                                             text129      0049BA
__end_ofPL390                                             text56       001BBE
__end_ofPL392                                             text57       0008D6
__end_ofPL394                                             text157      002964
__end_ofPL396                                             text118      002364
__end_ofPL398                                             text137      0011BA
__end_ofPL4                                               text108      000CF2
__end_ofPL40                                              text152      002D08
__end_ofPL400                                             text99       002E40
__end_ofPL402                                             text191      005086
__end_ofPL404                                             text137      0011C2
__end_ofPL406                                             text38       003EBA
__end_ofPL408                                             text146      0014A2
__end_ofPL410                                             text156      004A2C
__end_ofPL412                                             text146      0014AC
__end_ofPL414                                             text17       006210
__end_ofPL416                                             text137      0011C8
__end_ofPL418                                             text60       002ABA
__end_ofPL42                                              text57       000726
__end_ofPL420                                             text136      001FC8
__end_ofPL422                                             text65       00268A
__end_ofPL424                                             text146      0014B6
__end_ofPL426                                             text185      00605A
__end_ofPL428                                             text200      005332
__end_ofPL430                                             text62       004D34
__end_ofPL432                                             text57       0008E0
__end_ofPL434                                             text202      006072
__end_ofPL436                                             text69       003168
__end_ofPL438                                             text56       001BC8
__end_ofPL44                                              text36       003042
__end_ofPL440                                             text96       0021A4
__end_ofPL442                                             text191      005090
__end_ofPL444                                             text146      0014C0
__end_ofPL446                                             text57       0008EA
__end_ofPL448                                             text104      005036
__end_ofPL450                                             text137      0011D0
__end_ofPL452                                             text90       003BD0
__end_ofPL454                                             text137      0011D6
__end_ofPL456                                             text118      00236A
__end_ofPL458                                             text137      0011DC
__end_ofPL46                                              text33       003C6E
__end_ofPL460                                             text163      0037C4
__end_ofPL462                                             text138      003A3E
__end_ofPL464                                             text137      0011E2
__end_ofPL466                                             text89       0050E8
__end_ofPL468                                             text40       0059AC
__end_ofPL470                                             text96       0021AC
__end_ofPL472                                             text156      004A32
__end_ofPL474                                             text137      0011E8
__end_ofPL48                                              text108      000D46
__end_ofPL50                                              text152      002D14
__end_ofPL52                                              text57       000732
__end_ofPL54                                              text101      004898
__end_ofPL56                                              text101      0048A2
__end_ofPL58                                              text151      003AFE
__end_ofPL6                                               text77       00436E
__end_ofPL60                                              text108      000D7C
__end_ofPL62                                              text36       003056
__end_ofPL64                                              text151      003B08
__end_ofPL66                                              text108      000D84
__end_ofPL68                                              text152      002D1E
__end_ofPL70                                              text33       003C88
__end_ofPL72                                              text76       005B82
__end_ofPL74                                              text150      00190A
__end_ofPL76                                              text150      001918
__end_ofPL78                                              text141      002F1C
__end_ofPL8                                               text108      000D26
__end_ofPL80                                              text60       002AA2
__end_ofPL82                                              text56       001BAC
__end_ofPL84                                              text101      0048BE
__end_ofPL86                                              text48       005B56
__end_ofPL88                                              text108      000D8E
__end_ofPL90                                              text60       002AB0
__end_ofPL92                                              text57       000740
__end_ofPL94                                              text31       004728
__end_ofPL96                                              text57       000762
__end_ofPL98                                              text108      000D9E
__end_of_AESCmac                                          text146      00141C
__end_of_AESEncode                                        text150      0018FC
__end_of_AESEncodeLoRa                                    text149      005D1A
__end_of_AckRetransmissionCallback                        text35       003364
__end_of_AssembleEncryptionBlock                          text100      0043E0
__end_of_AssemblePacket                                   text95       00170C
__end_of_AutomaticReplyCallback                           text34       005F7E
__end_of_CheckFlags                                       text106      005538
__end_of_CheckMcastFlags                                  text105      005132
__end_of_ComputeMic                                       text145      005288
__end_of_ComputeSessionKeys                               text103      004CA8
__end_of_ConfigureRadio                                   text129      0049B0
__end_of_ConfigureRadioRx                                 text119      005CF4
__end_of_ConfigureRadioTx                                 text125      00572E
__end_of_CountfOptsLength                                 text101      00488C
__end_of_CreateAllSoftwareTimers                          text194      0052E2
__end_of_DIO0_ISR_Lora_Init                               text19       006288
__end_of_DIO1_ISR_Lora_Init                               text18       006284
__end_of_DIO2_ISR_Lora_Init                               text17       00620A
__end_of_DIO3_ISR_Lora_Init                               text16       0062A0
__end_of_DIO4_ISR_Lora_Init                               text15       00629E
__end_of_DIO5_ISR_Lora_Init                               text14       006280
__end_of_DefaultChannels433                               mediumconst  00FFD2
__end_of_DefaultChannels868                               mediumconst  00FFFC
__end_of_DutyCycleCallback                                text32       001D84
__end_of_EUSART1_Initialize                               text26       006088
__end_of_EXT_INT_Initialize                               text21       0054FE
__end_of_EnableChannels                                   text88       0060B4
__end_of_EnableChannels1                                  text89       0050E0
__end_of_EncKeySchedule                                   text152      002CC4
__end_of_EncodeShiftRow                                   text151      003AF0
__end_of_EncryptFRMPayload                                text99       002DE6
__end_of_ExecuteDevStatus                                 text92       0061C4
__end_of_ExecuteDutyCycle                                 text91       005380
__end_of_ExecuteLinkAdr                                   text81       002BD6
__end_of_ExecuteLinkCheck                                 text80       005BA0
__end_of_ExecuteNewChannel                                text72       0027C8
__end_of_ExecuteRxParamSetupReq                           text69       00315E
__end_of_ExecuteRxTimingSetup                             text66       005D88
__end_of_ExtractMic                                       text102      0057AE
__end_of_FillSubKey                                       text148      005592
__end_of_FindSmallestDataRate                             text98       00483A
__end_of_FskSyncWordBuff                                  mediumconst  00FFFF
__end_of_GenerateSubkey                                   text147      003506
__end_of_GetRx1Freq                                       text42       00612A
__end_of_HALDIO5PinValue                                  text165      00626C
__end_of_HALResetPinMakeInput                             text177      00629C
__end_of_HALResetPinMakeOutput                            text176      006298
__end_of_HALResetPinOutputValue                           text175      006106
__end_of_HALSPICSAssert                                   text172      006294
__end_of_HALSPICSDeassert                                 text171      006290
__end_of_HALSPISend                                       text169      006200
__end_of_INT0_SetInterruptHandler                         text25       0062A4
__end_of_INT1_CallBack                                    text213      005F64
__end_of_INT1_DefaultInterruptHandler                     text214      0062AE
__end_of_INT1_ISR                                         text212      006278
__end_of_INT1_SetInterruptHandler                         text24       0061BA
__end_of_INT2_CallBack                                    text210      005F48
__end_of_INT2_DefaultInterruptHandler                     text211      0062AC
__end_of_INT2_ISR                                         text209      006272
__end_of_INT2_SetInterruptHandler                         text23       0061B0
__end_of_INT3_SetInterruptHandler                         text22       0062A2
__end_of_INTERRUPT_GetDioStatus                           text120      00616C
__end_of_INTERRUPT_Initialize                             text20       00628C
__end_of_INTERRUPT_InterruptManager                       intcode      000082
__end_of_IOCBF4_DefaultInterruptHandler                   text208      0062AA
__end_of_IOCBF4_ISR                                       text207      005DD0
__end_of_IOCBF4_SetInterruptHandler                       text8        00619C
__end_of_IncludeMacCommandsResponse                       text96       00217C
__end_of_InitDefault433Channels                           text191      005072
__end_of_InitDefault868Channels                           text190      0055D2
__end_of_LORAWAN_EnterContinuousReceive                   text112      004F0A
__end_of_LORAWAN_GetMaxPayloadSize                        text94       005858
__end_of_LORAWAN_Init                                     text153      005468
__end_of_LORAWAN_Join                                     text121      0047B4
__end_of_LORAWAN_LinkCheckCallback                        text36       00300E
__end_of_LORAWAN_LinkCheckConfigure                       text178      003268
__end_of_LORAWAN_Mainloop                                 text30       005828
__end_of_LORAWAN_PlatformInit                             text10       005E74
__end_of_LORAWAN_ReceiveWindow1Callback                   text37       0044AC
__end_of_LORAWAN_ReceiveWindow2Callback                   text38       003EA8
__end_of_LORAWAN_Reset                                    text157      002918
__end_of_LORAWAN_RxDone                                   text57       0006EA
__end_of_LORAWAN_RxTimeout                                text56       001BA2
__end_of_LORAWAN_Send                                     text93       004022
__end_of_LORAWAN_SetApplicationSessionKey                 text29       005A6A
__end_of_LORAWAN_SetChannelIdStatus                       text78       005ACE
__end_of_LORAWAN_SetDeviceAddress                         text28       005FCA
__end_of_LORAWAN_SetNetworkSessionKey                     text27       005C82
__end_of_LORAWAN_TxDone                                   text108      000CE2
__end_of_MacExecuteCommands                               text65       002680
__end_of_OSCILLATOR_Initialize                            text9        006118
__end_of_PIN_MANAGER_IOC                                  text206      006248
__end_of_PIN_MANAGER_Initialize                           text7        003602
__end_of_PrepareJoinRequestFrame                          text141      002EF6
__end_of_PrepareSessionKeys                               text104      005020
__end_of_RADIO_DIO0                                       text50       004D98
__end_of_RADIO_DIO1                                       text47       00589E
__end_of_RADIO_DIO2                                       text46       005624
__end_of_RADIO_DIO3                                       text45       006012
__end_of_RADIO_DIO4                                       text44       005FFA
__end_of_RADIO_DIO5                                       text43       005FE2
__end_of_RADIO_FHSSChangeChannel                          text49       005AA0
__end_of_RADIO_FSKPacketSent                              text107      003402
__end_of_RADIO_FSKPayloadReady                            text55       0045E8
__end_of_RADIO_GetPacketSnr                               text97       00625A
__end_of_RADIO_GetStatus                                  text111      006260
__end_of_RADIO_Init                                       text161      0024F0
__end_of_RADIO_ReadRandom                                 text156      004A1C
__end_of_RADIO_ReceiveStart                               text118      002332
__end_of_RADIO_ReceiveStop                                text117      006042
__end_of_RADIO_RegisterRead                               text164      005D40
__end_of_RADIO_RegisterWrite                              text168      005F10
__end_of_RADIO_ReleaseData                                text116      006266
__end_of_RADIO_Reset                                      text173      005B2A
__end_of_RADIO_RxDone                                     text53       003F70
__end_of_RADIO_RxFSKTimeout                               text40       0059A6
__end_of_RADIO_RxTimeout                                  text48       005B4A
__end_of_RADIO_SetBandwidth                               text135      006240
__end_of_RADIO_SetCRC                                     text128      0061E2
__end_of_RADIO_SetChannelFrequency                        text134      004940
__end_of_RADIO_SetFSKSyncWord                             text133      005BDA
__end_of_RADIO_SetFrequencyHopPeriod                      text132      0061EC
__end_of_RADIO_SetIQInverted                              text127      0061D8
__end_of_RADIO_SetLoRaSyncWord                            text160      0061F6
__end_of_RADIO_SetModulation                              text131      006238
__end_of_RADIO_SetOutputPower                             text126      006228
__end_of_RADIO_SetSpreadingFactor                         text130      006230
__end_of_RADIO_Transmit                                   text136      001F80
__end_of_RADIO_TxDone                                     text52       004566
__end_of_RADIO_UnhandledInterrupt                         text51       005E94
__end_of_RADIO_WatchdogTimeout                            text39       00590C
__end_of_RADIO_WriteConfiguration                         text137      00117E
__end_of_RADIO_WriteFSKBitRate                            text140      004E5E
__end_of_RADIO_WriteFSKFrequencyDeviation                 text139      004F7E
__end_of_RADIO_WriteFrequency                             text166      003890
__end_of_RADIO_WriteMode                                  text163      0037B2
__end_of_RADIO_WritePower                                 text138      003A38
__end_of_Random                                           text142      005E14
__end_of_ResetParametersForConfirmedTransmission          text115      006156
__end_of_ResetParametersForUnconfirmedTransmission        text114      0061CE
__end_of_RxDataDone                                       text113      0062A6
__end_of_RxJoinResponse                                   text64       006254
__end_of_SPI2_Exchange8bit                                text170      00613C
__end_of_SPI2_Initialize                                  text6        006186
__end_of_STable                                           mediumconst  00FF6D
__end_of_SYSTEM_Initialize                                text3        005E54
__end_of_SearchAvailableChannel                           text124      0040D4
__end_of_SelectChannelForTransmission                     text123      004DEC
__end_of_SetCallbackSoftwareTimers                        text155      004214
__end_of_SetJoinFailState                                 text63       005D64
__end_of_SetReceptionNotOkState                           text62       004D24
__end_of_StartReTxTimer                                   text61       0036EA
__end_of_StopAllSoftwareTimers                            text159      00541C
__end_of_SwTimerCreate                                    text195      005668
__end_of_SwTimerIsRunning                                 text110      0060CA
__end_of_SwTimerReadValue                                 text109      005A14
__end_of_SwTimerSetCallback                               text162      005BF6
__end_of_SwTimerSetTimeout                                text189      0058D6
__end_of_SwTimerStart                                     text182      004C66
__end_of_SwTimerStop                                      text181      00614E
__end_of_SwTimersExecute                                  text31       004708
__end_of_SwTimersInterrupt                                text186      003DF4
__end_of_SystemBlockingWaitMs                             text174      005C30
__end_of_SystemTimerInit                                  text13       00624E
__end_of_TMR1_CallBack                                    text198      005F2C
__end_of_TMR1_DefaultInterruptHandler                     text199      0062A8
__end_of_TMR1_ISR                                         text197      005DAC
__end_of_TMR1_Initialize                                  text4        0056EC
__end_of_TMR1_ReadTimer                                   text188      005EB4
__end_of_TMR1_SetInterruptHandler                         text12       0061A6
__end_of_TMR1_StartTimer                                  text5        00627C
__end_of_TMR1_WriteTimer                                  text185      006050
__end_of_TMR_GetDeltaTime                                 text187      0042AA
__end_of_TMR_ISR_Lora_Init                                text11       006192
__end_of_TMR_ISR_lora                                     text200      005328
__end_of_TMR_OverrideRemaining                            text183      004AAA
__end_of_TMR_SwapTimer                                    text184      005978
__end_of_UnconfirmedTransmissionCallback                  text41       004B6E
__end_of_UpdateCfList                                     text60       002A78
__end_of_UpdateChannelIdStatus                            text90       003B90
__end_of_UpdateCurrentDataRate                            text87       006220
__end_of_UpdateDLSettings                                 text59       005F98
__end_of_UpdateDataRange                                  text77       00435E
__end_of_UpdateDutyCycle                                  text76       005B72
__end_of_UpdateFrequency                                  text75       005CCE
__end_of_UpdateJoinInProgress                             text122      005FB2
__end_of_UpdateJoinSuccessState                           text33       003C5C
__end_of_UpdateMinMaxChDataRate                           text158      004BFC
__end_of_UpdateReceiveDelays                              text67       005942
__end_of_UpdateReceiveWindow2Parameters                   text71       00609E
__end_of_UpdateRetransmissionAckTimeoutState              text58       0051EC
__end_of_UpdateTxPower                                    text86       006218
__end_of_ValidateChannelId                                text79       005EF2
__end_of_ValidateChannelMask                              text85       005AFC
__end_of_ValidateChannelMaskCntl                          text84       00602A
__end_of_ValidateDataRange                                text74       0059E0
__end_of_ValidateDataRate                                 text83       0060F2
__end_of_ValidateFrequency                                text73       004FDA
__end_of_ValidateRxOffset                                 text70       0060DE
__end_of_ValidateTxPower                                  text82       005DF2
__end_of___abdiv                                          text54       00523E
__end_of___lldiv                                          text180      004B20
__end_of___llmod                                          text167      004EC0
__end_of___lmul                                           text179      0054B4
__end_of___lwmod                                          text144      0057EC
__end_of___wmul                                           text68       005CA8
__end_of__initialization                                  cinit        004694
__end_of_bandwidth                                        mediumconst  00FF94
__end_of_flash                                            text2        0056AA
__end_of_macEndDevCmdReplyLen                             mediumconst  00FF9B
__end_of_main                                             text0        003D4C
__end_of_maxPayloadSize                                   mediumconst  00FF75
__end_of_memcpy                                           text193      005198
__end_of_memset                                           text192      005C5A
__end_of_modulation                                       mediumconst  00FF7D
__end_of_rand                                             text143      0053CE
__end_of_rxWindowOffset                                   mediumconst  00FF85
__end_of_rxWindowSize                                     mediumconst  00FF8D
__end_of_sendPacket                                       text1        005E34
__end_of_spreadingFactor                                  mediumconst  00FFA2
__end_of_srand                                            text154      00617A
__end_of_txPower868                                       mediumconst  00FFA8
__end_ofi2_SwTimersInterrupt                              text203      004182
__end_ofi2_TMR1_ReadTimer                                 text205      005ED4
__end_ofi2_TMR1_WriteTimer                                text202      006068
__end_ofi2_TMR_GetDeltaTime                               text204      003914
__end_ofi2_TMR_SwapTimer                                  text201      005762
__initialization                                          cinit        004604
__mediumconst                                             mediumconst  00FE6C
__pbssBANK1                                               bssBANK1     00016E
__pbssBANK2                                               bssBANK2     000200
__pbssBANK3                                               bssBANK3     000300
__pbssBANK4                                               bssBANK4     000400
__pbssBIGRAM                                              bssBIGRAM    0004E0
__pbssCOMRAM                                              bssCOMRAM    000030
__pcinit                                                  cinit        004604
__pcstackBANK0                                            cstackBANK0  000060
__pcstackBANK1                                            cstackBANK1  000100
__pcstackBANK3                                            cstackBANK3  0003A0
__pcstackCOMRAM                                           cstackCOMRAM 000001
__pdataBANK1                                              dataBANK1    0001BD
__pdataCOMRAM                                             dataCOMRAM   000056
__pidataBANK1                                             idataBANK1   005A14
__pidataCOMRAM                                            idataCOMRAM  006200
__pintcode                                                intcode      000008
__pmediumconst                                            mediumconst  00FE6C
__pnvBANK1                                                nvBANK1      0001ED
__pnvCOMRAM                                               nvCOMRAM     00005E
__ptext0                                                  text0        003C90
__ptext1                                                  text1        005E14
__ptext10                                                 text10       005E54
__ptext100                                                text100      004380
__ptext101                                                text101      00483A
__ptext102                                                text102      005770
__ptext103                                                text103      004C66
__ptext104                                                text104      004FDA
__ptext105                                                text105      0050E8
__ptext106                                                text106      0054FE
__ptext107                                                text107      003364
__ptext108                                                text108      0008EA
__ptext109                                                text109      0059E0
__ptext11                                                 text11       006186
__ptext110                                                text110      0060B4
__ptext111                                                text111      00625A
__ptext112                                                text112      004EC0
__ptext113                                                text113      0062A4
__ptext114                                                text114      0061C4
__ptext115                                                text115      00614E
__ptext116                                                text116      006260
__ptext117                                                text117      00602A
__ptext118                                                text118      0021AC
__ptext119                                                text119      005CCE
__ptext12                                                 text12       00619C
__ptext120                                                text120      00615E
__ptext121                                                text121      004728
__ptext122                                                text122      005F98
__ptext123                                                text123      004D98
__ptext124                                                text124      004022
__ptext125                                                text125      0056EC
__ptext126                                                text126      006220
__ptext127                                                text127      0061CE
__ptext128                                                text128      0061D8
__ptext129                                                text129      004940
__ptext13                                                 text13       006248
__ptext130                                                text130      006228
__ptext131                                                text131      006230
__ptext132                                                text132      0061E2
__ptext133                                                text133      005BAE
__ptext134                                                text134      0048BE
__ptext135                                                text135      006238
__ptext136                                                text136      001DE0
__ptext137                                                text137      000DB6
__ptext138                                                text138      003972
__ptext139                                                text139      004F20
__ptext14                                                 text14       00627C
__ptext140                                                text140      004DFC
__ptext141                                                text141      002E40
__ptext142                                                text142      005DF2
__ptext143                                                text143      005380
__ptext144                                                text144      0057AE
__ptext145                                                text145      00523E
__ptext146                                                text146      0011E8
__ptext147                                                text147      00344E
__ptext148                                                text148      005548
__ptext149                                                text149      005CF4
__ptext15                                                 text15       00629C
__ptext150                                                text150      001766
__ptext151                                                text151      003A3E
__ptext152                                                text152      002BFA
__ptext153                                                text153      00541C
__ptext154                                                text154      00616C
__ptext155                                                text155      004182
__ptext156                                                text156      0049BA
__ptext157                                                text157      0027FE
__ptext158                                                text158      004B92
__ptext159                                                text159      0053CE
__ptext16                                                 text16       00629E
__ptext160                                                text160      0061EC
__ptext161                                                text161      00236A
__ptext162                                                text162      005BDA
__ptext163                                                text163      0036EA
__ptext164                                                text164      005D1A
__ptext165                                                text165      006266
__ptext166                                                text166      0037C4
__ptext167                                                text167      004E5E
__ptext168                                                text168      005EF2
__ptext169                                                text169      0061F6
__ptext17                                                 text17       006208
__ptext170                                                text170      00612A
__ptext171                                                text171      00628C
__ptext172                                                text172      006290
__ptext173                                                text173      005AFC
__ptext174                                                text174      005C06
__ptext175                                                text175      0060F2
__ptext176                                                text176      006294
__ptext177                                                text177      006298
__ptext178                                                text178      003168
__ptext179                                                text179      005468
__ptext18                                                 text18       006280
__ptext180                                                text180      004AAA
__ptext181                                                text181      00613C
__ptext182                                                text182      004BFC
__ptext183                                                text183      004A32
__ptext184                                                text184      005942
__ptext185                                                text185      006042
__ptext186                                                text186      003D4C
__ptext187                                                text187      00422E
__ptext188                                                text188      005E94
__ptext189                                                text189      00589E
__ptext19                                                 text19       006284
__ptext190                                                text190      005592
__ptext191                                                text191      005036
__ptext192                                                text192      005C30
__ptext193                                                text193      005140
__ptext194                                                text194      005290
__ptext195                                                text195      005624
__ptext197                                                text197      005D88
__ptext198                                                text198      005F10
__ptext199                                                text199      0062A6
__ptext2                                                  text2        005668
__ptext20                                                 text20       006288
__ptext200                                                text200      0052E2
__ptext201                                                text201      00572E
__ptext202                                                text202      00605A
__ptext203                                                text203      0040D4
__ptext204                                                text204      00389C
__ptext205                                                text205      005EB4
__ptext206                                                text206      006240
__ptext207                                                text207      005DAC
__ptext208                                                text208      0062A8
__ptext209                                                text209      00626C
__ptext21                                                 text21       0054B4
__ptext210                                                text210      005F2C
__ptext211                                                text211      0062AA
__ptext212                                                text212      006272
__ptext213                                                text213      005F48
__ptext214                                                text214      0062AC
__ptext215                                                text215      000000
__ptext22                                                 text22       0062A0
__ptext23                                                 text23       0061A6
__ptext24                                                 text24       0061B0
__ptext25                                                 text25       0062A2
__ptext26                                                 text26       006072
__ptext27                                                 text27       005C5A
__ptext28                                                 text28       005FB2
__ptext29                                                 text29       005A44
__ptext3                                                  text3        005E34
__ptext30                                                 text30       0057EC
__ptext31                                                 text31       00469A
__ptext32                                                 text32       001BC8
__ptext33                                                 text33       003BD0
__ptext34                                                 text34       005F64
__ptext35                                                 text35       003268
__ptext36                                                 text36       002F54
__ptext37                                                 text37       004424
__ptext38                                                 text38       003E04
__ptext39                                                 text39       0058D6
__ptext4                                                  text4        0056AA
__ptext40                                                 text40       005978
__ptext41                                                 text41       004B20
__ptext42                                                 text42       006118
__ptext43                                                 text43       005FCA
__ptext44                                                 text44       005FE2
__ptext45                                                 text45       005FFA
__ptext46                                                 text46       0055DC
__ptext47                                                 text47       005864
__ptext48                                                 text48       005B2A
__ptext49                                                 text49       005A72
__ptext5                                                  text5        006278
__ptext50                                                 text50       004D34
__ptext51                                                 text51       005E74
__ptext52                                                 text52       0044C6
__ptext53                                                 text53       003EBA
__ptext54                                                 text54       0051EC
__ptext55                                                 text55       004566
__ptext56                                                 text56       00199C
__ptext57                                                 text57       00008A
__ptext58                                                 text58       005198
__ptext59                                                 text59       005F7E
__ptext6                                                  text6        00617A
__ptext60                                                 text60       002964
__ptext61                                                 text61       00360E
__ptext62                                                 text62       004CCE
__ptext63                                                 text63       005D40
__ptext64                                                 text64       00624E
__ptext65                                                 text65       002502
__ptext66                                                 text66       005D64
__ptext67                                                 text67       00590C
__ptext68                                                 text68       005C82
__ptext69                                                 text69       003062
__ptext7                                                  text7        003530
__ptext70                                                 text70       0060CA
__ptext71                                                 text71       006088
__ptext72                                                 text72       00268A
__ptext73                                                 text73       004F7E
__ptext74                                                 text74       0059AC
__ptext75                                                 text75       005CA8
__ptext76                                                 text76       005B56
__ptext77                                                 text77       0042D8
__ptext78                                                 text78       005AA0
__ptext79                                                 text79       005ED4
__ptext8                                                  text8        006192
__ptext80                                                 text80       005B82
__ptext81                                                 text81       002ABA
__ptext82                                                 text82       005DD0
__ptext83                                                 text83       0060DE
__ptext84                                                 text84       006012
__ptext85                                                 text85       005ACE
__ptext86                                                 text86       006210
__ptext87                                                 text87       006218
__ptext88                                                 text88       00609E
__ptext89                                                 text89       005090
__ptext9                                                  text9        006106
__ptext90                                                 text90       003B08
__ptext91                                                 text91       005332
__ptext92                                                 text92       0061BA
__ptext93                                                 text93       003F70
__ptext94                                                 text94       005828
__ptext95                                                 text95       0014C0
__ptext96                                                 text96       001FC8
__ptext97                                                 text97       006254
__ptext98                                                 text98       0047B4
__ptext99                                                 text99       002D1E
__ramtop                                                  ramtop       000E00
__rcon                                                    bssCOMRAM    000046
__roundCounter                                            bssCOMRAM    000047
__size_of_AESCmac                                         (abs)        000000
__size_of_AESEncode                                       (abs)        000000
__size_of_AESEncodeLoRa                                   (abs)        000000
__size_of_AckRetransmissionCallback                       (abs)        000000
__size_of_AssembleEncryptionBlock                         (abs)        000000
__size_of_AssemblePacket                                  (abs)        000000
__size_of_AutomaticReplyCallback                          (abs)        000000
__size_of_CheckFlags                                      (abs)        000000
__size_of_CheckMcastFlags                                 (abs)        000000
__size_of_ComputeMic                                      (abs)        000000
__size_of_ComputeSessionKeys                              (abs)        000000
__size_of_ConfigureRadio                                  (abs)        000000
__size_of_ConfigureRadioRx                                (abs)        000000
__size_of_ConfigureRadioTx                                (abs)        000000
__size_of_CountfOptsLength                                (abs)        000000
__size_of_CreateAllSoftwareTimers                         (abs)        000000
__size_of_DIO0_ISR_Lora_Init                              (abs)        000000
__size_of_DIO1_ISR_Lora_Init                              (abs)        000000
__size_of_DIO2_ISR_Lora_Init                              (abs)        000000
__size_of_DIO3_ISR_Lora_Init                              (abs)        000000
__size_of_DIO4_ISR_Lora_Init                              (abs)        000000
__size_of_DIO5_ISR_Lora_Init                              (abs)        000000
__size_of_DutyCycleCallback                               (abs)        000000
__size_of_EUSART1_Initialize                              (abs)        000000
__size_of_EXT_INT_Initialize                              (abs)        000000
__size_of_EnableChannels                                  (abs)        000000
__size_of_EnableChannels1                                 (abs)        000000
__size_of_EncKeySchedule                                  (abs)        000000
__size_of_EncodeShiftRow                                  (abs)        000000
__size_of_EncryptFRMPayload                               (abs)        000000
__size_of_ExecuteDevStatus                                (abs)        000000
__size_of_ExecuteDutyCycle                                (abs)        000000
__size_of_ExecuteLinkAdr                                  (abs)        000000
__size_of_ExecuteLinkCheck                                (abs)        000000
__size_of_ExecuteNewChannel                               (abs)        000000
__size_of_ExecuteRxParamSetupReq                          (abs)        000000
__size_of_ExecuteRxTimingSetup                            (abs)        000000
__size_of_ExtractMic                                      (abs)        000000
__size_of_FillSubKey                                      (abs)        000000
__size_of_FindSmallestDataRate                            (abs)        000000
__size_of_GenerateSubkey                                  (abs)        000000
__size_of_GetRx1Freq                                      (abs)        000000
__size_of_HALDIO5PinValue                                 (abs)        000000
__size_of_HALResetPinMakeInput                            (abs)        000000
__size_of_HALResetPinMakeOutput                           (abs)        000000
__size_of_HALResetPinOutputValue                          (abs)        000000
__size_of_HALSPICSAssert                                  (abs)        000000
__size_of_HALSPICSDeassert                                (abs)        000000
__size_of_HALSPISend                                      (abs)        000000
__size_of_INT0_SetInterruptHandler                        (abs)        000000
__size_of_INT1_CallBack                                   (abs)        000000
__size_of_INT1_DefaultInterruptHandler                    (abs)        000000
__size_of_INT1_ISR                                        (abs)        000000
__size_of_INT1_SetInterruptHandler                        (abs)        000000
__size_of_INT2_CallBack                                   (abs)        000000
__size_of_INT2_DefaultInterruptHandler                    (abs)        000000
__size_of_INT2_ISR                                        (abs)        000000
__size_of_INT2_SetInterruptHandler                        (abs)        000000
__size_of_INT3_SetInterruptHandler                        (abs)        000000
__size_of_INTERRUPT_GetDioStatus                          (abs)        000000
__size_of_INTERRUPT_Initialize                            (abs)        000000
__size_of_INTERRUPT_InterruptManager                      (abs)        000000
__size_of_IOCBF4_DefaultInterruptHandler                  (abs)        000000
__size_of_IOCBF4_ISR                                      (abs)        000000
__size_of_IOCBF4_SetInterruptHandler                      (abs)        000000
__size_of_IncludeMacCommandsResponse                      (abs)        000000
__size_of_InitDefault433Channels                          (abs)        000000
__size_of_InitDefault868Channels                          (abs)        000000
__size_of_LORAWAN_EnterContinuousReceive                  (abs)        000000
__size_of_LORAWAN_GetMaxPayloadSize                       (abs)        000000
__size_of_LORAWAN_Init                                    (abs)        000000
__size_of_LORAWAN_Join                                    (abs)        000000
__size_of_LORAWAN_LinkCheckCallback                       (abs)        000000
__size_of_LORAWAN_LinkCheckConfigure                      (abs)        000000
__size_of_LORAWAN_Mainloop                                (abs)        000000
__size_of_LORAWAN_PlatformInit                            (abs)        000000
__size_of_LORAWAN_ReceiveWindow1Callback                  (abs)        000000
__size_of_LORAWAN_ReceiveWindow2Callback                  (abs)        000000
__size_of_LORAWAN_Reset                                   (abs)        000000
__size_of_LORAWAN_RxDone                                  (abs)        000000
__size_of_LORAWAN_RxTimeout                               (abs)        000000
__size_of_LORAWAN_Send                                    (abs)        000000
__size_of_LORAWAN_SetApplicationSessionKey                (abs)        000000
__size_of_LORAWAN_SetChannelIdStatus                      (abs)        000000
__size_of_LORAWAN_SetDeviceAddress                        (abs)        000000
__size_of_LORAWAN_SetNetworkSessionKey                    (abs)        000000
__size_of_LORAWAN_TxDone                                  (abs)        000000
__size_of_MacExecuteCommands                              (abs)        000000
__size_of_OSCILLATOR_Initialize                           (abs)        000000
__size_of_PIN_MANAGER_IOC                                 (abs)        000000
__size_of_PIN_MANAGER_Initialize                          (abs)        000000
__size_of_PrepareJoinRequestFrame                         (abs)        000000
__size_of_PrepareSessionKeys                              (abs)        000000
__size_of_RADIO_DIO0                                      (abs)        000000
__size_of_RADIO_DIO1                                      (abs)        000000
__size_of_RADIO_DIO2                                      (abs)        000000
__size_of_RADIO_DIO3                                      (abs)        000000
__size_of_RADIO_DIO4                                      (abs)        000000
__size_of_RADIO_DIO5                                      (abs)        000000
__size_of_RADIO_FHSSChangeChannel                         (abs)        000000
__size_of_RADIO_FSKPacketSent                             (abs)        000000
__size_of_RADIO_FSKPayloadReady                           (abs)        000000
__size_of_RADIO_GetPacketSnr                              (abs)        000000
__size_of_RADIO_GetStatus                                 (abs)        000000
__size_of_RADIO_Init                                      (abs)        000000
__size_of_RADIO_ReadRandom                                (abs)        000000
__size_of_RADIO_ReceiveStart                              (abs)        000000
__size_of_RADIO_ReceiveStop                               (abs)        000000
__size_of_RADIO_RegisterRead                              (abs)        000000
__size_of_RADIO_RegisterWrite                             (abs)        000000
__size_of_RADIO_ReleaseData                               (abs)        000000
__size_of_RADIO_Reset                                     (abs)        000000
__size_of_RADIO_RxDone                                    (abs)        000000
__size_of_RADIO_RxFSKTimeout                              (abs)        000000
__size_of_RADIO_RxTimeout                                 (abs)        000000
__size_of_RADIO_SetBandwidth                              (abs)        000000
__size_of_RADIO_SetCRC                                    (abs)        000000
__size_of_RADIO_SetChannelFrequency                       (abs)        000000
__size_of_RADIO_SetFSKSyncWord                            (abs)        000000
__size_of_RADIO_SetFrequencyHopPeriod                     (abs)        000000
__size_of_RADIO_SetIQInverted                             (abs)        000000
__size_of_RADIO_SetLoRaSyncWord                           (abs)        000000
__size_of_RADIO_SetModulation                             (abs)        000000
__size_of_RADIO_SetOutputPower                            (abs)        000000
__size_of_RADIO_SetSpreadingFactor                        (abs)        000000
__size_of_RADIO_Transmit                                  (abs)        000000
__size_of_RADIO_TxDone                                    (abs)        000000
__size_of_RADIO_UnhandledInterrupt                        (abs)        000000
__size_of_RADIO_WatchdogTimeout                           (abs)        000000
__size_of_RADIO_WriteConfiguration                        (abs)        000000
__size_of_RADIO_WriteFSKBitRate                           (abs)        000000
__size_of_RADIO_WriteFSKFrequencyDeviation                (abs)        000000
__size_of_RADIO_WriteFrequency                            (abs)        000000
__size_of_RADIO_WriteMode                                 (abs)        000000
__size_of_RADIO_WritePower                                (abs)        000000
__size_of_Random                                          (abs)        000000
__size_of_ResetParametersForConfirmedTransmission         (abs)        000000
__size_of_ResetParametersForUnconfirmedTransmission       (abs)        000000
__size_of_RxDataDone                                      (abs)        000000
__size_of_RxJoinResponse                                  (abs)        000000
__size_of_SPI2_Exchange8bit                               (abs)        000000
__size_of_SPI2_Initialize                                 (abs)        000000
__size_of_SYSTEM_Initialize                               (abs)        000000
__size_of_SearchAvailableChannel                          (abs)        000000
__size_of_SelectChannelForTransmission                    (abs)        000000
__size_of_SetCallbackSoftwareTimers                       (abs)        000000
__size_of_SetJoinFailState                                (abs)        000000
__size_of_SetReceptionNotOkState                          (abs)        000000
__size_of_StartReTxTimer                                  (abs)        000000
__size_of_StopAllSoftwareTimers                           (abs)        000000
__size_of_SwTimerCreate                                   (abs)        000000
__size_of_SwTimerIsRunning                                (abs)        000000
__size_of_SwTimerReadValue                                (abs)        000000
__size_of_SwTimerSetCallback                              (abs)        000000
__size_of_SwTimerSetTimeout                               (abs)        000000
__size_of_SwTimerStart                                    (abs)        000000
__size_of_SwTimerStop                                     (abs)        000000
__size_of_SwTimersExecute                                 (abs)        000000
__size_of_SwTimersInterrupt                               (abs)        000000
__size_of_SystemBlockingWaitMs                            (abs)        000000
__size_of_SystemTimerInit                                 (abs)        000000
__size_of_TMR1_CallBack                                   (abs)        000000
__size_of_TMR1_DefaultInterruptHandler                    (abs)        000000
__size_of_TMR1_ISR                                        (abs)        000000
__size_of_TMR1_Initialize                                 (abs)        000000
__size_of_TMR1_ReadTimer                                  (abs)        000000
__size_of_TMR1_SetInterruptHandler                        (abs)        000000
__size_of_TMR1_StartTimer                                 (abs)        000000
__size_of_TMR1_WriteTimer                                 (abs)        000000
__size_of_TMR_GetDeltaTime                                (abs)        000000
__size_of_TMR_ISR_Lora_Init                               (abs)        000000
__size_of_TMR_ISR_lora                                    (abs)        000000
__size_of_TMR_OverrideRemaining                           (abs)        000000
__size_of_TMR_SwapTimer                                   (abs)        000000
__size_of_UnconfirmedTransmissionCallback                 (abs)        000000
__size_of_UpdateCfList                                    (abs)        000000
__size_of_UpdateChannelIdStatus                           (abs)        000000
__size_of_UpdateCurrentDataRate                           (abs)        000000
__size_of_UpdateDLSettings                                (abs)        000000
__size_of_UpdateDataRange                                 (abs)        000000
__size_of_UpdateDutyCycle                                 (abs)        000000
__size_of_UpdateFrequency                                 (abs)        000000
__size_of_UpdateJoinInProgress                            (abs)        000000
__size_of_UpdateJoinSuccessState                          (abs)        000000
__size_of_UpdateMinMaxChDataRate                          (abs)        000000
__size_of_UpdateReceiveDelays                             (abs)        000000
__size_of_UpdateReceiveWindow2Parameters                  (abs)        000000
__size_of_UpdateRetransmissionAckTimeoutState             (abs)        000000
__size_of_UpdateTxPower                                   (abs)        000000
__size_of_ValidateChannelId                               (abs)        000000
__size_of_ValidateChannelMask                             (abs)        000000
__size_of_ValidateChannelMaskCntl                         (abs)        000000
__size_of_ValidateDataRange                               (abs)        000000
__size_of_ValidateDataRate                                (abs)        000000
__size_of_ValidateFrequency                               (abs)        000000
__size_of_ValidateRxOffset                                (abs)        000000
__size_of_ValidateTxPower                                 (abs)        000000
__size_of___abdiv                                         (abs)        000000
__size_of___lldiv                                         (abs)        000000
__size_of___llmod                                         (abs)        000000
__size_of___lmul                                          (abs)        000000
__size_of___lwmod                                         (abs)        000000
__size_of___wmul                                          (abs)        000000
__size_of_flash                                           (abs)        000000
__size_of_main                                            (abs)        000000
__size_of_memcpy                                          (abs)        000000
__size_of_memset                                          (abs)        000000
__size_of_rand                                            (abs)        000000
__size_of_sendPacket                                      (abs)        000000
__size_of_srand                                           (abs)        000000
__size_ofi2_SwTimersInterrupt                             (abs)        000000
__size_ofi2_TMR1_ReadTimer                                (abs)        000000
__size_ofi2_TMR1_WriteTimer                               (abs)        000000
__size_ofi2_TMR_GetDeltaTime                              (abs)        000000
__size_ofi2_TMR_SwapTimer                                 (abs)        000000
__smallconst                                              smallconst   000000
_aesBuffer                                                bssBANK1     0001AB
_allocatedTimers                                          bssBANK1     000173
_appSKey                                                  dataBANK1    0001CD
_bandwidth                                                mediumconst  00FF8D
_dioStatus                                                bssCOMRAM    000048
_flash                                                    text2        005668
_loRa                                                     bssBANK2     000200
_localDioStatus                                           bssBANK1     000174
_macBuffer                                                bssBIGRAM    0004E0
_macEndDevCmdReplyLen                                     mediumconst  00FF94
_main                                                     text0        003C90
_maxPayloadSize                                           mediumconst  00FF6D
_memcpy                                                   text193      005140
_memset                                                   text192      005C30
_modulation                                               mediumconst  00FF75
_nwkSKey                                                  dataBANK1    0001DD
_payload                                                  bssBANK1     0001BB
_radioBuffer                                              bssBIGRAM    0005EF
_rand                                                     text143      005380
_randx                                                    dataCOMRAM   000056
_reloadVal                                                bssCOMRAM    000044
_rxPayload                                                bssBANK1     00016E
_rxWindowOffset                                           mediumconst  00FF7D
_rxWindowSize                                             mediumconst  00FF85
_sendPacket                                               text1        005E14
_spreadingFactor                                          mediumconst  00FF9B
_srand                                                    text154      00616C
_swTimers                                                 bssBANK3     000300
_ticksAccounted                                           bssCOMRAM    000034
_ticksAdded                                               bssCOMRAM    000038
_ticksToScheduledInterrupt                                dataCOMRAM   00005A
_timer1ReloadVal                                          nvCOMRAM     00005E
_timerOverflow                                            bssCOMRAM    000049
_txPower868                                               mediumconst  00FFA2
btemp                                                     temp         00004A
end_of_initialization                                     cinit        004694
flash@x                                                   cstackBANK0  000065
i2SwTimersInterrupt@i                                     cstackCOMRAM 000027
i2SwTimersInterrupt@ticksToNextTimerEvent                 cstackCOMRAM 000023
i2SwTimersInterrupt@timeElapsed                           cstackCOMRAM 00001F
i2TMR1_ReadTimer@readVal                                  cstackCOMRAM 000005
i2TMR1_WriteTimer@timerVal                                cstackCOMRAM 000001
i2TMR_SwapTimer@timerVal                                  cstackCOMRAM 000007
i2_SwTimersInterrupt                                      text203      0040D4
i2_TMR1_ReadTimer                                         text205      005EB4
i2_TMR1_WriteTimer                                        text202      00605A
i2_TMR_GetDeltaTime                                       text204      00389C
i2_TMR_SwapTimer                                          text201      00572E
intlevel0                                                 text         000000
intlevel1                                                 text         000000
intlevel2                                                 text         000000
intlevel3                                                 text         000000
main@flag                                                 cstackBANK0  0000F4
main@x                                                    cstackBANK0  0000F6
memcpy@d                                                  cstackBANK0  00006A
memcpy@d1                                                 cstackBANK0  000064
memcpy@n                                                  cstackBANK0  000068
memcpy@s                                                  cstackBANK0  00006C
memcpy@s1                                                 cstackBANK0  000066
memset@c                                                  cstackBANK0  000066
memset@n                                                  cstackBANK0  000068
memset@p                                                  cstackBANK0  00006A
memset@p1                                                 cstackBANK0  000064
srand@x                                                   cstackBANK0  000075
stackhi                                                   (abs)        000DDD
stacklo                                                   (abs)        0006FE
start                                                     init         000082
start_initialization                                      cinit        004604


FUNCTION INFORMATION:

 *************** function _main *****************
 Defined at:
		line 61 in file "main.c"
 Parameters:    Size  Location     Type
		None
 Auto vars:     Size  Location     Type
  x               2  150[BANK0 ] int 
  flag            2  148[BANK0 ] int 
 Return value:  Size  Location     Type
                  1    wreg      void 
 Registers used:
		wreg, fsr0l, fsr0h, fsr1l, fsr1h, fsr2l, fsr2h, status,2, status,0, pclat, btemp+1, btemp+2, btemp+4, btemp+5, btemp+6, btemp+7, btemp+8, btemp+9, btemp+10, btemp+11, tosl, tblptrl, tblptrh, tblptru, prodl, prodh, cstack
 Tracked objects:
		On entry : 
		On exit  : 
		Unchanged: 
 Data sizes:     COMRAM   BANK0   BANK1   BANK2   BANK3   BANK4   BANK5   BANK6   BANK7   BANK8   BANK9  BANK10  BANK11  BANK12  BANK13
      Params:         0       0       0       0       0       0       0       0       0       0       0       0       0       0       0
      Locals:         0       4       0       0       0       0       0       0       0       0       0       0       0       0       0
      Temps:          0       1       0       0       0       0       0       0       0       0       0       0       0       0       0
      Totals:         0       5       0       0       0       0       0       0       0       0       0       0       0       0       0
Total ram usage:        5 bytes
 Hardware stack levels required when called:   19
 This function calls:
		_LORAWAN_Init
		_LORAWAN_Join
		_LORAWAN_Mainloop
		_LORAWAN_SetApplicationSessionKey
		_LORAWAN_SetDeviceAddress
		_LORAWAN_SetNetworkSessionKey
		_SYSTEM_Initialize
		_flash
		_sendPacket
 This function is called by:
		Startup code after reset
 This function uses a non-reentrant model


 *************** function _sendPacket *****************
 Defined at:
		line 99 in file "main.c"
 Parameters:    Size  Location     Type
		None
 Auto vars:     Size  Location     Type
		None
 Return value:  Size  Location     Type
                  1    wreg      void 
 Registers used:
		wreg, fsr0l, fsr0h, fsr2l, fsr2h, status,2, status,0, tblptrl, tblptrh, tblptru, prodl, prodh, cstack
 Tracked objects:
		On entry : 
		On exit  : 
		Unchanged: 
 Data sizes:     COMRAM   BANK0   BANK1   BANK2   BANK3   BANK4   BANK5   BANK6   BANK7   BANK8   BANK9  BANK10  BANK11  BANK12  BANK13
      Params:         0       0       0       0       0       0       0       0       0       0       0       0       0       0       0
      Locals:         0       0       0       0       0       0       0       0       0       0       0       0       0       0       0
      Temps:          0       0       0       0       0       0       0       0       0       0       0       0       0       0       0
      Totals:         0       0       0       0       0       0       0       0       0       0       0       0       0       0       0
Total ram usage:        0 bytes
 Hardware stack levels used:    1
 Hardware stack levels required when called:   14
 This function calls:
		_LORAWAN_Send
 This function is called by:
		_main
 This function uses a non-reentrant model


 *************** function _flash *****************
 Defined at:
		line 117 in file "main.c"
 Parameters:    Size  Location     Type
		None
 Auto vars:     Size  Location     Type
  x               1    5[BANK0 ] unsigned char 
 Return value:  Size  Location     Type
                  1    wreg      void 
 Registers used:
		wreg, status,2, status,0
 Tracked objects:
		On entry : 
		On exit  : 
		Unchanged: 
 Data sizes:     COMRAM   BANK0   BANK1   BANK2   BANK3   BANK4   BANK5   BANK6   BANK7   BANK8   BANK9  BANK10  BANK11  BANK12  BANK13
      Params:         0       0       0       0       0       0       0       0       0       0       0       0       0       0       0
      Locals:         0       1       0       0       0       0       0       0       0       0       0       0       0       0       0
      Temps:          0       1       0       0       0       0       0       0       0       0       0       0       0       0       0
      Totals:         0       2       0       0       0       0       0       0       0       0       0       0       0       0       0
Total ram usage:        2 bytes
 Hardware stack levels used:    1
 Hardware stack levels required when called:    7
 This function calls:
		Nothing
 This function is called by:
		_main
 This function uses a non-reentrant model


 *************** function _SYSTEM_Initialize *****************
 Defined at:
		line 107 in file "mcc_generated_files/mcc.c"
 Parameters:    Size  Location     Type
		None
 Auto vars:     Size  Location     Type
		None
 Return value:  Size  Location     Type
                  1    wreg      void 
 Registers used:
		wreg, status,2, status,0, cstack
 Tracked objects:
		On entry : 
		On exit  : 
		Unchanged: 
 Data sizes:     COMRAM   BANK0   BANK1   BANK2   BANK3   BANK4   BANK5   BANK6   BANK7   BANK8   BANK9  BANK10  BANK11  BANK12  BANK13
      Params:         0       0       0       0       0       0       0       0       0       0       0       0       0       0       0
      Locals:         0       0       0       0       0       0       0       0       0       0       0       0       0       0       0
      Temps:          0       0       0       0       0       0       0       0       0       0       0       0       0       0       0
      Totals:         0       0       0       0       0       0       0       0       0       0       0       0       0       0       0
Total ram usage:        0 bytes
 Hardware stack levels used:    1
 Hardware stack levels required when called:   10
 This function calls:
		_EUSART1_Initialize
		_EXT_INT_Initialize
		_INTERRUPT_Initialize
		_LORAWAN_PlatformInit
		_OSCILLATOR_Initialize
		_PIN_MANAGER_Initialize
		_SPI2_Initialize
		_TMR1_Initialize
 This function is called by:
		_main
 This function uses a non-reentrant model


 *************** function _TMR1_Initialize *****************
 Defined at:
		line 63 in file "mcc_generated_files/tmr1.c"
 Parameters:    Size  Location     Type
		None
 Auto vars:     Size  Location     Type
		None
 Return value:  Size  Location     Type
                  1    wreg      void 
 Registers used:
		wreg, status,2, status,0, cstack
 Tracked objects:
		On entry : 
		On exit  : 
		Unchanged: 
 Data sizes:     COMRAM   BANK0   BANK1   BANK2   BANK3   BANK4   BANK5   BANK6   BANK7   BANK8   BANK9  BANK10  BANK11  BANK12  BANK13
      Params:         0       0       0       0       0       0       0       0       0       0       0       0       0       0       0
      Locals:         0       0       0       0       0       0       0       0       0       0       0       0       0       0       0
      Temps:          0       2       0       0       0       0       0       0       0       0       0       0       0       0       0
      Totals:         0       2       0       0       0       0       0       0       0       0       0       0       0       0       0
Total ram usage:        2 bytes
 Hardware stack levels used:    1
 Hardware stack levels required when called:    8
 This function calls:
		_TMR1_SetInterruptHandler
		_TMR1_StartTimer
 This function is called by:
		_SYSTEM_Initialize
 This function uses a non-reentrant model


 *************** function _TMR1_StartTimer *****************
 Defined at:
		line 101 in file "mcc_generated_files/tmr1.c"
 Parameters:    Size  Location     Type
		None
 Auto vars:     Size  Location     Type
		None
 Return value:  Size  Location     Type
                  1    wreg      void 
 Registers used:
		None
 Tracked objects:
		On entry : 
		On exit  : 
		Unchanged: 
 Data sizes:     COMRAM   BANK0   BANK1   BANK2   BANK3   BANK4   BANK5   BANK6   BANK7   BANK8   BANK9  BANK10  BANK11  BANK12  BANK13
      Params:         0       0       0       0       0       0       0       0       0       0       0       0       0       0       0
      Locals:         0       0       0       0       0       0       0       0       0       0       0       0       0       0       0
      Temps:          0       0       0       0       0       0       0       0       0       0       0       0       0       0       0
      Totals:         0       0       0       0       0       0       0       0       0       0       0       0       0       0       0
Total ram usage:        0 bytes
 Hardware stack levels used:    1
 Hardware stack levels required when called:    7
 This function calls:
		Nothing
 This function is called by:
		_TMR1_Initialize
 This function uses a non-reentrant model


 *************** function _SPI2_Initialize *****************
 Defined at:
		line 63 in file "mcc_generated_files/spi2.c"
 Parameters:    Size  Location     Type
		None
 Auto vars:     Size  Location     Type
		None
 Return value:  Size  Location     Type
                  1    wreg      void 
 Registers used:
		wreg, status,2
 Tracked objects:
		On entry : 
		On exit  : 
		Unchanged: 
 Data sizes:     COMRAM   BANK0   BANK1   BANK2   BANK3   BANK4   BANK5   BANK6   BANK7   BANK8   BANK9  BANK10  BANK11  BANK12  BANK13
      Params:         0       0       0       0       0       0       0       0       0       0       0       0       0       0       0
      Locals:         0       0       0       0       0       0       0       0       0       0       0       0       0       0       0
      Temps:          0       0       0       0       0       0       0       0       0       0       0       0       0       0       0
      Totals:         0       0       0       0       0       0       0       0       0       0       0       0       0       0       0
Total ram usage:        0 bytes
 Hardware stack levels used:    1
 Hardware stack levels required when called:    7
 This function calls:
		Nothing
 This function is called by:
		_SYSTEM_Initialize
 This function uses a non-reentrant model


 *************** function _PIN_MANAGER_Initialize *****************
 Defined at:
		line 52 in file "mcc_generated_files/pin_manager.c"
 Parameters:    Size  Location     Type
		None
 Auto vars:     Size  Location     Type
  state           1    6[BANK0 ] unsigned char 
 Return value:  Size  Location     Type
                  1    wreg      void 
 Registers used:
		wreg, status,2, status,0, cstack
 Tracked objects:
		On entry : 
		On exit  : 
		Unchanged: 
 Data sizes:     COMRAM   BANK0   BANK1   BANK2   BANK3   BANK4   BANK5   BANK6   BANK7   BANK8   BANK9  BANK10  BANK11  BANK12  BANK13
      Params:         0       0       0       0       0       0       0       0       0       0       0       0       0       0       0
      Locals:         0       1       0       0       0       0       0       0       0       0       0       0       0       0       0
      Temps:          0       0       0       0       0       0       0       0       0       0       0       0       0       0       0
      Totals:         0       1       0       0       0       0       0       0       0       0       0       0       0       0       0
Total ram usage:        1 bytes
 Hardware stack levels used:    1
 Hardware stack levels required when called:    8
 This function calls:
		_IOCBF4_SetInterruptHandler
 This function is called by:
		_SYSTEM_Initialize
 This function uses a non-reentrant model


 *************** function _IOCBF4_SetInterruptHandler *****************
 Defined at:
		line 181 in file "mcc_generated_files/pin_manager.c"
 Parameters:    Size  Location     Type
  InterruptHan    2    4[BANK0 ] PTR void 
		 -> IOCBF4_DefaultInterruptHandler(1), 
 Auto vars:     Size  Location     Type
		None
 Return value:  Size  Location     Type
                  1    wreg      void 
 Registers used:
		wreg, status,2, status,0
 Tracked objects:
		On entry : 
		On exit  : 
		Unchanged: 
 Data sizes:     COMRAM   BANK0   BANK1   BANK2   BANK3   BANK4   BANK5   BANK6   BANK7   BANK8   BANK9  BANK10  BANK11  BANK12  BANK13
      Params:         0       2       0       0       0       0       0       0       0       0       0       0       0       0       0
      Locals:         0       0       0       0       0       0       0       0       0       0       0       0       0       0       0
      Temps:          0       0       0       0       0       0       0       0       0       0       0       0       0       0       0
      Totals:         0       2       0       0       0       0       0       0       0       0       0       0       0       0       0
Total ram usage:        2 bytes
 Hardware stack levels used:    1
 Hardware stack levels required when called:    7
 This function calls:
		Nothing
 This function is called by:
		_PIN_MANAGER_Initialize
 This function uses a non-reentrant model


 *************** function _OSCILLATOR_Initialize *****************
 Defined at:
		line 120 in file "mcc_generated_files/mcc.c"
 Parameters:    Size  Location     Type
		None
 Auto vars:     Size  Location     Type
		None
 Return value:  Size  Location     Type
                  1    wreg      void 
 Registers used:
		wreg, status,2
 Tracked objects:
		On entry : 
		On exit  : 
		Unchanged: 
 Data sizes:     COMRAM   BANK0   BANK1   BANK2   BANK3   BANK4   BANK5   BANK6   BANK7   BANK8   BANK9  BANK10  BANK11  BANK12  BANK13
      Params:         0       0       0       0       0       0       0       0       0       0       0       0       0       0       0
      Locals:         0       0       0       0       0       0       0       0       0       0       0       0       0       0       0
      Temps:          0       0       0       0       0       0       0       0       0       0       0       0       0       0       0
      Totals:         0       0       0       0       0       0       0       0       0       0       0       0       0       0       0
Total ram usage:        0 bytes
 Hardware stack levels used:    1
 Hardware stack levels required when called:    7
 This function calls:
		Nothing
 This function is called by:
		_SYSTEM_Initialize
 This function uses a non-reentrant model


 *************** function _LORAWAN_PlatformInit *****************
 Defined at:
		line 72 in file "mcc_generated_files/LoRaWAN/lorawan_init.c"
 Parameters:    Size  Location     Type
		None
 Auto vars:     Size  Location     Type
		None
 Return value:  Size  Location     Type
                  1    wreg      void 
 Registers used:
		wreg, status,2, status,0, cstack
 Tracked objects:
		On entry : 
		On exit  : 
		Unchanged: 
 Data sizes:     COMRAM   BANK0   BANK1   BANK2   BANK3   BANK4   BANK5   BANK6   BANK7   BANK8   BANK9  BANK10  BANK11  BANK12  BANK13
      Params:         0       0       0       0       0       0       0       0       0       0       0       0       0       0       0
      Locals:         0       0       0       0       0       0       0       0       0       0       0       0       0       0       0
      Temps:          0       0       0       0       0       0       0       0       0       0       0       0       0       0       0
      Totals:         0       0       0       0       0       0       0       0       0       0       0       0       0       0       0
Total ram usage:        0 bytes
 Hardware stack levels used:    1
 Hardware stack levels required when called:    9
 This function calls:
		_DIO0_ISR_Lora_Init
		_DIO1_ISR_Lora_Init
		_DIO2_ISR_Lora_Init
		_DIO3_ISR_Lora_Init
		_DIO4_ISR_Lora_Init
		_DIO5_ISR_Lora_Init
		_SystemTimerInit
		_TMR_ISR_Lora_Init
 This function is called by:
		_SYSTEM_Initialize
 This function uses a non-reentrant model


 *************** function _TMR_ISR_Lora_Init *****************
 Defined at:
		line 54 in file "mcc_generated_files/LoRaWAN/tmr_lora_addons.c"
 Parameters:    Size  Location     Type
		None
 Auto vars:     Size  Location     Type
		None
 Return value:  Size  Location     Type
                  1    wreg      void 
 Registers used:
		wreg, status,2, status,0, cstack
 Tracked objects:
		On entry : 
		On exit  : 
		Unchanged: 
 Data sizes:     COMRAM   BANK0   BANK1   BANK2   BANK3   BANK4   BANK5   BANK6   BANK7   BANK8   BANK9  BANK10  BANK11  BANK12  BANK13
      Params:         0       0       0       0       0       0       0       0       0       0       0       0       0       0       0
      Locals:         0       0       0       0       0       0       0       0       0       0       0       0       0       0       0
      Temps:          0       0       0       0       0       0       0       0       0       0       0       0       0       0       0
      Totals:         0       0       0       0       0       0       0       0       0       0       0       0       0       0       0
Total ram usage:        0 bytes
 Hardware stack levels used:    1
 Hardware stack levels required when called:    8
 This function calls:
		_TMR1_SetInterruptHandler
 This function is called by:
		_LORAWAN_PlatformInit
 This function uses a non-reentrant model


 *************** function _TMR1_SetInterruptHandler *****************
 Defined at:
		line 191 in file "mcc_generated_files/tmr1.c"
 Parameters:    Size  Location     Type
  InterruptHan    2    4[BANK0 ] PTR void 
		 -> TMR1_DefaultInterruptHandler(1), TMR_ISR_lora(1), 
 Auto vars:     Size  Location     Type
		None
 Return value:  Size  Location     Type
                  1    wreg      void 
 Registers used:
		wreg, status,2, status,0
 Tracked objects:
		On entry : 
		On exit  : 
		Unchanged: 
 Data sizes:     COMRAM   BANK0   BANK1   BANK2   BANK3   BANK4   BANK5   BANK6   BANK7   BANK8   BANK9  BANK10  BANK11  BANK12  BANK13
      Params:         0       2       0       0       0       0       0       0       0       0       0       0       0       0       0
      Locals:         0       0       0       0       0       0       0       0       0       0       0       0       0       0       0
      Temps:          0       0       0       0       0       0       0       0       0       0       0       0       0       0       0
      Totals:         0       2       0       0       0       0       0       0       0       0       0       0       0       0       0
Total ram usage:        2 bytes
 Hardware stack levels used:    1
 Hardware stack levels required when called:    7
 This function calls:
		Nothing
 This function is called by:
		_TMR_ISR_Lora_Init
		_TMR1_Initialize
 This function uses a non-reentrant model


 *************** function _SystemTimerInit *****************
 Defined at:
		line 135 in file "mcc_generated_files/LoRaWAN/sw_timer.c"
 Parameters:    Size  Location     Type
		None
 Auto vars:     Size  Location     Type
		None
 Return value:  Size  Location     Type
                  1    wreg      void 
 Registers used:
		None
 Tracked objects:
		On entry : 
		On exit  : 
		Unchanged: 
 Data sizes:     COMRAM   BANK0   BANK1   BANK2   BANK3   BANK4   BANK5   BANK6   BANK7   BANK8   BANK9  BANK10  BANK11  BANK12  BANK13
      Params:         0       0       0       0       0       0       0       0       0       0       0       0       0       0       0
      Locals:         0       0       0       0       0       0       0       0       0       0       0       0       0       0       0
      Temps:          0       0       0       0       0       0       0       0       0       0       0       0       0       0       0
      Totals:         0       0       0       0       0       0       0       0       0       0       0       0       0       0       0
Total ram usage:        0 bytes
 Hardware stack levels used:    1
 Hardware stack levels required when called:    7
 This function calls:
		Nothing
 This function is called by:
		_LORAWAN_PlatformInit
 This function uses a non-reentrant model


 *************** function _DIO5_ISR_Lora_Init *****************
 Defined at:
		line 67 in file "mcc_generated_files/LoRaWAN/lorawan_init.c"
 Parameters:    Size  Location     Type
		None
 Auto vars:     Size  Location     Type
		None
 Return value:  Size  Location     Type
                  1    wreg      void 
 Registers used:
		wreg, status,2, status,0, cstack
 Tracked objects:
		On entry : 
		On exit  : 
		Unchanged: 
 Data sizes:     COMRAM   BANK0   BANK1   BANK2   BANK3   BANK4   BANK5   BANK6   BANK7   BANK8   BANK9  BANK10  BANK11  BANK12  BANK13
      Params:         0       0       0       0       0       0       0       0       0       0       0       0       0       0       0
      Locals:         0       0       0       0       0       0       0       0       0       0       0       0       0       0       0
      Temps:          0       0       0       0       0       0       0       0       0       0       0       0       0       0       0
      Totals:         0       0       0       0       0       0       0       0       0       0       0       0       0       0       0
Total ram usage:        0 bytes
 Hardware stack levels used:    1
 Hardware stack levels required when called:    8
 This function calls:
		_INT0_SetInterruptHandler
 This function is called by:
		_LORAWAN_PlatformInit
 This function uses a non-reentrant model


 *************** function _DIO4_ISR_Lora_Init *****************
 Defined at:
		line 63 in file "mcc_generated_files/LoRaWAN/lorawan_init.c"
 Parameters:    Size  Location     Type
		None
 Auto vars:     Size  Location     Type
		None
 Return value:  Size  Location     Type
                  1    wreg      void 
 Registers used:
		None
 Tracked objects:
		On entry : 
		On exit  : 
		Unchanged: 
 Data sizes:     COMRAM   BANK0   BANK1   BANK2   BANK3   BANK4   BANK5   BANK6   BANK7   BANK8   BANK9  BANK10  BANK11  BANK12  BANK13
      Params:         0       0       0       0       0       0       0       0       0       0       0       0       0       0       0
      Locals:         0       0       0       0       0       0       0       0       0       0       0       0       0       0       0
      Temps:          0       0       0       0       0       0       0       0       0       0       0       0       0       0       0
      Totals:         0       0       0       0       0       0       0       0       0       0       0       0       0       0       0
Total ram usage:        0 bytes
 Hardware stack levels used:    1
 Hardware stack levels required when called:    7
 This function calls:
		Nothing
 This function is called by:
		_LORAWAN_PlatformInit
 This function uses a non-reentrant model


 *************** function _DIO3_ISR_Lora_Init *****************
 Defined at:
		line 59 in file "mcc_generated_files/LoRaWAN/lorawan_init.c"
 Parameters:    Size  Location     Type
		None
 Auto vars:     Size  Location     Type
		None
 Return value:  Size  Location     Type
                  1    wreg      void 
 Registers used:
		None
 Tracked objects:
		On entry : 
		On exit  : 
		Unchanged: 
 Data sizes:     COMRAM   BANK0   BANK1   BANK2   BANK3   BANK4   BANK5   BANK6   BANK7   BANK8   BANK9  BANK10  BANK11  BANK12  BANK13
      Params:         0       0       0       0       0       0       0       0       0       0       0       0       0       0       0
      Locals:         0       0       0       0       0       0       0       0       0       0       0       0       0       0       0
      Temps:          0       0       0       0       0       0       0       0       0       0       0       0       0       0       0
      Totals:         0       0       0       0       0       0       0       0       0       0       0       0       0       0       0
Total ram usage:        0 bytes
 Hardware stack levels used:    1
 Hardware stack levels required when called:    7
 This function calls:
		Nothing
 This function is called by:
		_LORAWAN_PlatformInit
 This function uses a non-reentrant model


 *************** function _DIO2_ISR_Lora_Init *****************
 Defined at:
		line 54 in file "mcc_generated_files/LoRaWAN/lorawan_init.c"
 Parameters:    Size  Location     Type
		None
 Auto vars:     Size  Location     Type
		None
 Return value:  Size  Location     Type
                  1    wreg      void 
 Registers used:
		wreg, status,2, status,0, cstack
 Tracked objects:
		On entry : 
		On exit  : 
		Unchanged: 
 Data sizes:     COMRAM   BANK0   BANK1   BANK2   BANK3   BANK4   BANK5   BANK6   BANK7   BANK8   BANK9  BANK10  BANK11  BANK12  BANK13
      Params:         0       0       0       0       0       0       0       0       0       0       0       0       0       0       0
      Locals:         0       0       0       0       0       0       0       0       0       0       0       0       0       0       0
      Temps:          0       0       0       0       0       0       0       0       0       0       0       0       0       0       0
      Totals:         0       0       0       0       0       0       0       0       0       0       0       0       0       0       0
Total ram usage:        0 bytes
 Hardware stack levels used:    1
 Hardware stack levels required when called:    8
 This function calls:
		_INT0_SetInterruptHandler
 This function is called by:
		_LORAWAN_PlatformInit
 This function uses a non-reentrant model


 *************** function _DIO1_ISR_Lora_Init *****************
 Defined at:
		line 49 in file "mcc_generated_files/LoRaWAN/lorawan_init.c"
 Parameters:    Size  Location     Type
		None
 Auto vars:     Size  Location     Type
		None
 Return value:  Size  Location     Type
                  1    wreg      void 
 Registers used:
		wreg, status,2, status,0, cstack
 Tracked objects:
		On entry : 
		On exit  : 
		Unchanged: 
 Data sizes:     COMRAM   BANK0   BANK1   BANK2   BANK3   BANK4   BANK5   BANK6   BANK7   BANK8   BANK9  BANK10  BANK11  BANK12  BANK13
      Params:         0       0       0       0       0       0       0       0       0       0       0       0       0       0       0
      Locals:         0       0       0       0       0       0       0       0       0       0       0       0       0       0       0
      Temps:          0       0       0       0       0       0       0       0       0       0       0       0       0       0       0
      Totals:         0       0       0       0       0       0       0       0       0       0       0       0       0       0       0
Total ram usage:        0 bytes
 Hardware stack levels used:    1
 Hardware stack levels required when called:    8
 This function calls:
		_INT0_SetInterruptHandler
 This function is called by:
		_LORAWAN_PlatformInit
 This function uses a non-reentrant model


 *************** function _DIO0_ISR_Lora_Init *****************
 Defined at:
		line 44 in file "mcc_generated_files/LoRaWAN/lorawan_init.c"
 Parameters:    Size  Location     Type
		None
 Auto vars:     Size  Location     Type
		None
 Return value:  Size  Location     Type
                  1    wreg      void 
 Registers used:
		wreg, status,2, status,0, cstack
 Tracked objects:
		On entry : 
		On exit  : 
		Unchanged: 
 Data sizes:     COMRAM   BANK0   BANK1   BANK2   BANK3   BANK4   BANK5   BANK6   BANK7   BANK8   BANK9  BANK10  BANK11  BANK12  BANK13
      Params:         0       0       0       0       0       0       0       0       0       0       0       0       0       0       0
      Locals:         0       0       0       0       0       0       0       0       0       0       0       0       0       0       0
      Temps:          0       0       0       0       0       0       0       0       0       0       0       0       0       0       0
      Totals:         0       0       0       0       0       0       0       0       0       0       0       0       0       0       0
Total ram usage:        0 bytes
 Hardware stack levels used:    1
 Hardware stack levels required when called:    8
 This function calls:
		_INT0_SetInterruptHandler
 This function is called by:
		_LORAWAN_PlatformInit
 This function uses a non-reentrant model


 *************** function _INTERRUPT_Initialize *****************
 Defined at:
		line 51 in file "mcc_generated_files/interrupt_manager.c"
 Parameters:    Size  Location     Type
		None
 Auto vars:     Size  Location     Type
		None
 Return value:  Size  Location     Type
                  1    wreg      void 
 Registers used:
		None
 Tracked objects:
		On entry : 
		On exit  : 
		Unchanged: 
 Data sizes:     COMRAM   BANK0   BANK1   BANK2   BANK3   BANK4   BANK5   BANK6   BANK7   BANK8   BANK9  BANK10  BANK11  BANK12  BANK13
      Params:         0       0       0       0       0       0       0       0       0       0       0       0       0       0       0
      Locals:         0       0       0       0       0       0       0       0       0       0       0       0       0       0       0
      Temps:          0       0       0       0       0       0       0       0       0       0       0       0       0       0       0
      Totals:         0       0       0       0       0       0       0       0       0       0       0       0       0       0       0
Total ram usage:        0 bytes
 Hardware stack levels used:    1
 Hardware stack levels required when called:    7
 This function calls:
		Nothing
 This function is called by:
		_SYSTEM_Initialize
 This function uses a non-reentrant model


 *************** function _EXT_INT_Initialize *****************
 Defined at:
		line 219 in file "mcc_generated_files/ext_int.c"
 Parameters:    Size  Location     Type
		None
 Auto vars:     Size  Location     Type
		None
 Return value:  Size  Location     Type
                  1    wreg      void 
 Registers used:
		wreg, status,2, status,0, cstack
 Tracked objects:
		On entry : 
		On exit  : 
		Unchanged: 
 Data sizes:     COMRAM   BANK0   BANK1   BANK2   BANK3   BANK4   BANK5   BANK6   BANK7   BANK8   BANK9  BANK10  BANK11  BANK12  BANK13
      Params:         0       0       0       0       0       0       0       0       0       0       0       0       0       0       0
      Locals:         0       0       0       0       0       0       0       0       0       0       0       0       0       0       0
      Temps:          0       0       0       0       0       0       0       0       0       0       0       0       0       0       0
      Totals:         0       0       0       0       0       0       0       0       0       0       0       0       0       0       0
Total ram usage:        0 bytes
 Hardware stack levels used:    1
 Hardware stack levels required when called:    8
 This function calls:
		_INT0_SetInterruptHandler
		_INT1_SetInterruptHandler
		_INT2_SetInterruptHandler
		_INT3_SetInterruptHandler
 This function is called by:
		_SYSTEM_Initialize
 This function uses a non-reentrant model


 *************** function _INT3_SetInterruptHandler *****************
 Defined at:
		line 196 in file "mcc_generated_files/ext_int.c"
 Parameters:    Size  Location     Type
  InterruptHan    2    4[BANK0 ] PTR void 
		 -> INT3_DefaultInterruptHandler(1), 
 Auto vars:     Size  Location     Type
		None
 Return value:  Size  Location     Type
                  1    wreg      void 
 Registers used:
		None
 Tracked objects:
		On entry : 
		On exit  : 
		Unchanged: 
 Data sizes:     COMRAM   BANK0   BANK1   BANK2   BANK3   BANK4   BANK5   BANK6   BANK7   BANK8   BANK9  BANK10  BANK11  BANK12  BANK13
      Params:         0       2       0       0       0       0       0       0       0       0       0       0       0       0       0
      Locals:         0       0       0       0       0       0       0       0       0       0       0       0       0       0       0
      Temps:          0       0       0       0       0       0       0       0       0       0       0       0       0       0       0
      Totals:         0       2       0       0       0       0       0       0       0       0       0       0       0       0       0
Total ram usage:        2 bytes
 Hardware stack levels used:    1
 Hardware stack levels required when called:    7
 This function calls:
		Nothing
 This function is called by:
		_EXT_INT_Initialize
 This function uses a non-reentrant model


 *************** function _INT2_SetInterruptHandler *****************
 Defined at:
		line 114 in file "mcc_generated_files/ext_int.c"
 Parameters:    Size  Location     Type
  InterruptHan    2    4[BANK0 ] PTR void 
		 -> INT2_DefaultInterruptHandler(1), 
 Auto vars:     Size  Location     Type
		None
 Return value:  Size  Location     Type
                  1    wreg      void 
 Registers used:
		wreg, status,2, status,0
 Tracked objects:
		On entry : 
		On exit  : 
		Unchanged: 
 Data sizes:     COMRAM   BANK0   BANK1   BANK2   BANK3   BANK4   BANK5   BANK6   BANK7   BANK8   BANK9  BANK10  BANK11  BANK12  BANK13
      Params:         0       2       0       0       0       0       0       0       0       0       0       0       0       0       0
      Locals:         0       0       0       0       0       0       0       0       0       0       0       0       0       0       0
      Temps:          0       0       0       0       0       0       0       0       0       0       0       0       0       0       0
      Totals:         0       2       0       0       0       0       0       0       0       0       0       0       0       0       0
Total ram usage:        2 bytes
 Hardware stack levels used:    1
 Hardware stack levels required when called:    7
 This function calls:
		Nothing
 This function is called by:
		_EXT_INT_Initialize
 This function uses a non-reentrant model


 *************** function _INT1_SetInterruptHandler *****************
 Defined at:
		line 73 in file "mcc_generated_files/ext_int.c"
 Parameters:    Size  Location     Type
  InterruptHan    2    4[BANK0 ] PTR void 
		 -> INT1_DefaultInterruptHandler(1), 
 Auto vars:     Size  Location     Type
		None
 Return value:  Size  Location     Type
                  1    wreg      void 
 Registers used:
		wreg, status,2, status,0
 Tracked objects:
		On entry : 
		On exit  : 
		Unchanged: 
 Data sizes:     COMRAM   BANK0   BANK1   BANK2   BANK3   BANK4   BANK5   BANK6   BANK7   BANK8   BANK9  BANK10  BANK11  BANK12  BANK13
      Params:         0       2       0       0       0       0       0       0       0       0       0       0       0       0       0
      Locals:         0       0       0       0       0       0       0       0       0       0       0       0       0       0       0
      Temps:          0       0       0       0       0       0       0       0       0       0       0       0       0       0       0
      Totals:         0       2       0       0       0       0       0       0       0       0       0       0       0       0       0
Total ram usage:        2 bytes
 Hardware stack levels used:    1
 Hardware stack levels required when called:    7
 This function calls:
		Nothing
 This function is called by:
		_EXT_INT_Initialize
 This function uses a non-reentrant model


 *************** function _INT0_SetInterruptHandler *****************
 Defined at:
		line 155 in file "mcc_generated_files/ext_int.c"
 Parameters:    Size  Location     Type
  InterruptHan    2    4[BANK0 ] PTR void 
		 -> DIO5_ISR_Lora(1), DIO2_ISR_Lora(1), DIO1_ISR_Lora(1), DIO0_ISR_Lora(1), 
		 -> INT0_DefaultInterruptHandler(1), 
 Auto vars:     Size  Location     Type
		None
 Return value:  Size  Location     Type
                  1    wreg      void 
 Registers used:
		None
 Tracked objects:
		On entry : 
		On exit  : 
		Unchanged: 
 Data sizes:     COMRAM   BANK0   BANK1   BANK2   BANK3   BANK4   BANK5   BANK6   BANK7   BANK8   BANK9  BANK10  BANK11  BANK12  BANK13
      Params:         0       2       0       0       0       0       0       0       0       0       0       0       0       0       0
      Locals:         0       0       0       0       0       0       0       0       0       0       0       0       0       0       0
      Temps:          0       0       0       0       0       0       0       0       0       0       0       0       0       0       0
      Totals:         0       2       0       0       0       0       0       0       0       0       0       0       0       0       0
Total ram usage:        2 bytes
 Hardware stack levels used:    1
 Hardware stack levels required when called:    7
 This function calls:
		Nothing
 This function is called by:
		_EXT_INT_Initialize
		_DIO0_ISR_Lora_Init
		_DIO1_ISR_Lora_Init
		_DIO2_ISR_Lora_Init
		_DIO5_ISR_Lora_Init
 This function uses a non-reentrant model


 *************** function _EUSART1_Initialize *****************
 Defined at:
		line 55 in file "mcc_generated_files/eusart1.c"
 Parameters:    Size  Location     Type
		None
 Auto vars:     Size  Location     Type
		None
 Return value:  Size  Location     Type
                  1    wreg      void 
 Registers used:
		wreg, status,2
 Tracked objects:
		On entry : 
		On exit  : 
		Unchanged: 
 Data sizes:     COMRAM   BANK0   BANK1   BANK2   BANK3   BANK4   BANK5   BANK6   BANK7   BANK8   BANK9  BANK10  BANK11  BANK12  BANK13
      Params:         0       0       0       0       0       0       0       0       0       0       0       0       0       0       0
      Locals:         0       0       0       0       0       0       0       0       0       0       0       0       0       0       0
      Temps:          0       0       0       0       0       0       0       0       0       0       0       0       0       0       0
      Totals:         0       0       0       0       0       0       0       0       0       0       0       0       0       0       0
Total ram usage:        0 bytes
 Hardware stack levels used:    1
 Hardware stack levels required when called:    7
 This function calls:
		Nothing
 This function is called by:
		_SYSTEM_Initialize
 This function uses a non-reentrant model


 *************** function _LORAWAN_SetNetworkSessionKey *****************
 Defined at:
		line 379 in file "mcc_generated_files/LoRaWAN/lorawan.c"
 Parameters:    Size  Location     Type
  networkSessi    2   14[BANK0 ] PTR unsigned char 
		 -> nwkSKey(16), 
 Auto vars:     Size  Location     Type
		None
 Return value:  Size  Location     Type
                  1    wreg      void 
 Registers used:
		wreg, fsr0l, fsr0h, fsr2l, fsr2h, status,2, status,0, tblptrl, tblptrh, tblptru, cstack
 Tracked objects:
		On entry : 
		On exit  : 
		Unchanged: 
 Data sizes:     COMRAM   BANK0   BANK1   BANK2   BANK3   BANK4   BANK5   BANK6   BANK7   BANK8   BANK9  BANK10  BANK11  BANK12  BANK13
      Params:         0       2       0       0       0       0       0       0       0       0       0       0       0       0       0
      Locals:         0       0       0       0       0       0       0       0       0       0       0       0       0       0       0
      Temps:          0       0       0       0       0       0       0       0       0       0       0       0       0       0       0
      Totals:         0       2       0       0       0       0       0       0       0       0       0       0       0       0       0
Total ram usage:        2 bytes
 Hardware stack levels used:    1
 Hardware stack levels required when called:    8
 This function calls:
		_memcpy
 This function is called by:
		_main
 This function uses a non-reentrant model


 *************** function _LORAWAN_SetDeviceAddress *****************
 Defined at:
		line 367 in file "mcc_generated_files/LoRaWAN/lorawan.c"
 Parameters:    Size  Location     Type
  deviceAddres    4    4[BANK0 ] unsigned long 
 Auto vars:     Size  Location     Type
		None
 Return value:  Size  Location     Type
                  1    wreg      void 
 Registers used:
		None
 Tracked objects:
		On entry : 
		On exit  : 
		Unchanged: 
 Data sizes:     COMRAM   BANK0   BANK1   BANK2   BANK3   BANK4   BANK5   BANK6   BANK7   BANK8   BANK9  BANK10  BANK11  BANK12  BANK13
      Params:         0       4       0       0       0       0       0       0       0       0       0       0       0       0       0
      Locals:         0       0       0       0       0       0       0       0       0       0       0       0       0       0       0
      Temps:          0       0       0       0       0       0       0       0       0       0       0       0       0       0       0
      Totals:         0       4       0       0       0       0       0       0       0       0       0       0       0       0       0
Total ram usage:        4 bytes
 Hardware stack levels used:    1
 Hardware stack levels required when called:    7
 This function calls:
		Nothing
 This function is called by:
		_main
 This function uses a non-reentrant model


 *************** function _LORAWAN_SetApplicationSessionKey *****************
 Defined at:
		line 394 in file "mcc_generated_files/LoRaWAN/lorawan.c"
 Parameters:    Size  Location     Type
  applicationS    2   14[BANK0 ] PTR unsigned char 
		 -> appSKey(16), 
 Auto vars:     Size  Location     Type
		None
 Return value:  Size  Location     Type
                  1    wreg      void 
 Registers used:
		wreg, fsr0l, fsr0h, fsr2l, fsr2h, status,2, status,0, tblptrl, tblptrh, tblptru, cstack
 Tracked objects:
		On entry : 
		On exit  : 
		Unchanged: 
 Data sizes:     COMRAM   BANK0   BANK1   BANK2   BANK3   BANK4   BANK5   BANK6   BANK7   BANK8   BANK9  BANK10  BANK11  BANK12  BANK13
      Params:         0       2       0       0       0       0       0       0       0       0       0       0       0       0       0
      Locals:         0       0       0       0       0       0       0       0       0       0       0       0       0       0       0
      Temps:          0       0       0       0       0       0       0       0       0       0       0       0       0       0       0
      Totals:         0       2       0       0       0       0       0       0       0       0       0       0       0       0       0
Total ram usage:        2 bytes
 Hardware stack levels used:    1
 Hardware stack levels required when called:    8
 This function calls:
		_memcpy
 This function is called by:
		_main
 This function uses a non-reentrant model


 *************** function _LORAWAN_Mainloop *****************
 Defined at:
		line 2238 in file "mcc_generated_files/LoRaWAN/lorawan.c"
 Parameters:    Size  Location     Type
		None
 Auto vars:     Size  Location     Type
		None
 Return value:  Size  Location     Type
                  1    wreg      void 
 Registers used:
		wreg, fsr0l, fsr0h, fsr1l, fsr1h, fsr2l, fsr2h, status,2, status,0, pclat, btemp+1, btemp+2, btemp+4, btemp+5, btemp+6, btemp+7, btemp+8, btemp+9, btemp+10, btemp+11, tosl, tblptrl, tblptrh, tblptru, prodl, prodh, cstack
 Tracked objects:
		On entry : 
		On exit  : 
		Unchanged: 
 Data sizes:     COMRAM   BANK0   BANK1   BANK2   BANK3   BANK4   BANK5   BANK6   BANK7   BANK8   BANK9  BANK10  BANK11  BANK12  BANK13
      Params:         0       0       0       0       0       0       0       0       0       0       0       0       0       0       0
      Locals:         0       0       0       0       0       0       0       0       0       0       0       0       0       0       0
      Temps:          0       0       0       0       0       0       0       0       0       0       0       0       0       0       0
      Totals:         0       0       0       0       0       0       0       0       0       0       0       0       0       0       0
Total ram usage:        0 bytes
 Hardware stack levels used:    1
 Hardware stack levels required when called:   18
 This function calls:
		_INTERRUPT_GetDioStatus
		_RADIO_DIO0
		_RADIO_DIO1
		_RADIO_DIO2
		_RADIO_DIO3
		_RADIO_DIO4
		_RADIO_DIO5
		_SwTimersExecute
 This function is called by:
		_main
 This function uses a non-reentrant model


 *************** function _SwTimersExecute *****************
 Defined at:
		line 260 in file "mcc_generated_files/LoRaWAN/sw_timer.c"
 Parameters:    Size  Location     Type
		None
 Auto vars:     Size  Location     Type
  i               1  140[BANK0 ] unsigned char 
 Return value:  Size  Location     Type
                  1    wreg      void 
 Registers used:
		wreg, fsr0l, fsr0h, fsr1l, fsr1h, fsr2l, fsr2h, status,2, status,0, pclat, btemp+1, btemp+2, btemp+4, btemp+5, btemp+6, btemp+7, btemp+8, btemp+9, btemp+10, btemp+11, tosl, tblptrl, tblptrh, tblptru, prodl, prodh, cstack
 Tracked objects:
		On entry : 
		On exit  : 
		Unchanged: 
 Data sizes:     COMRAM   BANK0   BANK1   BANK2   BANK3   BANK4   BANK5   BANK6   BANK7   BANK8   BANK9  BANK10  BANK11  BANK12  BANK13
      Params:         0       0       0       0       0       0       0       0       0       0       0       0       0       0       0
      Locals:         0       1       0       0       0       0       0       0       0       0       0       0       0       0       0
      Temps:          0       4       0       0       0       0       0       0       0       0       0       0       0       0       0
      Totals:         0       5       0       0       0       0       0       0       0       0       0       0       0       0       0
Total ram usage:        5 bytes
 Hardware stack levels used:    1
 Hardware stack levels required when called:   17
 This function calls:
		Absolute function
		_AckRetransmissionCallback
		_AutomaticReplyCallback
		_DutyCycleCallback
		_LORAWAN_LinkCheckCallback
		_LORAWAN_ReceiveWindow1Callback
		_LORAWAN_ReceiveWindow2Callback
		_RADIO_RxFSKTimeout
		_RADIO_WatchdogTimeout
		_UnconfirmedTransmissionCallback
		_UpdateJoinSuccessState
 This function is called by:
		_LORAWAN_Mainloop
 This function uses a non-reentrant model


 *************** function _DutyCycleCallback *****************
 Defined at:
		line 1221 in file "mcc_generated_files/LoRaWAN/lorawan_eu.c"
 Parameters:    Size  Location     Type
  param           1  [STACK] unsigned char 
 Auto vars:     Size  Location     Type
  minim           4  [STACK] unsigned long 
  i               1  [STACK] unsigned char 
  found           1  [STACK] unsigned char 
 Return value:  Size  Location     Type
                  1  [STACK] void 
 Registers used:
		wreg, fsr1l, fsr1h, fsr2l, fsr2h, status,2, status,0, btemp+1, btemp+4, btemp+5, btemp+6, btemp+7, btemp+8, btemp+9, btemp+10, btemp+11, prodl, prodh, cstack
 Tracked objects:
		On entry : 
		On exit  : 
		Unchanged: 
 Data sizes:     COMRAM   BANK0   BANK1   BANK2   BANK3   BANK4   BANK5   BANK6   BANK7   BANK8   BANK9  BANK10  BANK11  BANK12  BANK13
      Params:         0       0       0       0       0       0       0       0       0       0       0       0       0       0       0
      Locals:         0       0       0       0       0       0       0       0       0       0       0       0       0       0       0
      Temps:          0       0       0       0       0       0       0       0       0       0       0       0       0       0       0
      Totals:         0       0       0       0       0       0       0       0       0       0       0       0       0       0       0
Total ram usage:        0 bytes
 Hardware stack levels used:    1
 Hardware stack levels required when called:   11
 This function calls:
		_SwTimerSetTimeout
		_SwTimerStart
		___lldiv
 This function is called by:
		_SetCallbackSoftwareTimers
		_SwTimersExecute
 This function uses a reentrant model


 *************** function _UpdateJoinSuccessState *****************
 Defined at:
		line 1041 in file "mcc_generated_files/LoRaWAN/lorawan.c"
 Parameters:    Size  Location     Type
  param           1  [STACK] unsigned char 
 Auto vars:     Size  Location     Type
		None
 Return value:  Size  Location     Type
                  1  [STACK] void 
 Registers used:
		wreg, fsr1l, fsr1h, fsr2l, fsr2h, status,2, status,0, pclat, btemp+8, btemp+9, btemp+10, btemp+11, tosl, prodl, prodh, cstack
 Tracked objects:
		On entry : 
		On exit  : 
		Unchanged: 
 Data sizes:     COMRAM   BANK0   BANK1   BANK2   BANK3   BANK4   BANK5   BANK6   BANK7   BANK8   BANK9  BANK10  BANK11  BANK12  BANK13
      Params:         0       0       0       0       0       0       0       0       0       0       0       0       0       0       0
      Locals:         0       0       0       0       0       0       0       0       0       0       0       0       0       0       0
      Temps:          0       0       0       0       0       0       0       0       0       0       0       0       0       0       0
      Totals:         0       0       0       0       0       0       0       0       0       0       0       0       0       0       0
Total ram usage:        0 bytes
 Hardware stack levels used:    1
 Hardware stack levels required when called:   11
 This function calls:
		_RxJoinResponse
		_SwTimerSetTimeout
		_SwTimerStart
		___lldiv
 This function is called by:
		_SetCallbackSoftwareTimers
		_LORAWAN_RxDone
		_SwTimersExecute
 This function uses a reentrant model


 *************** function _AutomaticReplyCallback *****************
 Defined at:
		line 1017 in file "mcc_generated_files/LoRaWAN/lorawan.c"
 Parameters:    Size  Location     Type
  param           1  [STACK] unsigned char 
 Auto vars:     Size  Location     Type
		None
 Return value:  Size  Location     Type
                  1  [STACK] void 
 Registers used:
		wreg, fsr0l, fsr0h, fsr2l, fsr2h, status,2, status,0, tblptrl, tblptrh, tblptru, prodl, prodh, cstack
 Tracked objects:
		On entry : 
		On exit  : 
		Unchanged: 
 Data sizes:     COMRAM   BANK0   BANK1   BANK2   BANK3   BANK4   BANK5   BANK6   BANK7   BANK8   BANK9  BANK10  BANK11  BANK12  BANK13
      Params:         0       0       0       0       0       0       0       0       0       0       0       0       0       0       0
      Locals:         0       0       0       0       0       0       0       0       0       0       0       0       0       0       0
      Temps:          0       0       0       0       0       0       0       0       0       0       0       0       0       0       0
      Totals:         0       0       0       0       0       0       0       0       0       0       0       0       0       0       0
Total ram usage:        0 bytes
 Hardware stack levels used:    1
 Hardware stack levels required when called:   14
 This function calls:
		_LORAWAN_Send
 This function is called by:
		_SetCallbackSoftwareTimers
		_SwTimersExecute
 This function uses a reentrant model


 *************** function _AckRetransmissionCallback *****************
 Defined at:
		line 934 in file "mcc_generated_files/LoRaWAN/lorawan.c"
 Parameters:    Size  Location     Type
  param           1  [STACK] unsigned char 
 Auto vars:     Size  Location     Type
  maximumPacke    1  [STACK] unsigned char 
 Return value:  Size  Location     Type
                  1  [STACK] void 
 Registers used:
		wreg, fsr0l, fsr0h, fsr1l, fsr1h, fsr2l, fsr2h, status,2, status,0, pclat, btemp+1, btemp+2, btemp+10, btemp+11, tosl, tblptrl, tblptrh, tblptru, prodl, prodh, cstack
 Tracked objects:
		On entry : 
		On exit  : 
		Unchanged: 
 Data sizes:     COMRAM   BANK0   BANK1   BANK2   BANK3   BANK4   BANK5   BANK6   BANK7   BANK8   BANK9  BANK10  BANK11  BANK12  BANK13
      Params:         0       0       0       0       0       0       0       0       0       0       0       0       0       0       0
      Locals:         0       0       0       0       0       0       0       0       0       0       0       0       0       0       0
      Temps:          0       0       0       0       0       0       0       0       0       0       0       0       0       0       0
      Totals:         0       0       0       0       0       0       0       0       0       0       0       0       0       0       0
Total ram usage:        0 bytes
 Hardware stack levels used:    1
 Hardware stack levels required when called:   13
 This function calls:
		_FindSmallestDataRate
		_LORAWAN_GetMaxPayloadSize
		_RADIO_Transmit
		_ResetParametersForConfirmedTransmission
		_RxDataDone
		_SelectChannelForTransmission
		_UpdateRetransmissionAckTimeoutState
 This function is called by:
		_SetCallbackSoftwareTimers
		_SwTimersExecute
 This function uses a reentrant model


 *************** function _LORAWAN_LinkCheckCallback *****************
 Defined at:
		line 881 in file "mcc_generated_files/LoRaWAN/lorawan.c"
 Parameters:    Size  Location     Type
  param           1  [STACK] unsigned char 
 Auto vars:     Size  Location     Type
  iCtr            1  [STACK] unsigned char 
 Return value:  Size  Location     Type
                  1  [STACK] void 
 Registers used:
		wreg, fsr1l, fsr1h, fsr2l, fsr2h, status,2, status,0, btemp+1, btemp+8, btemp+9, btemp+10, btemp+11, prodl, prodh, cstack
 Tracked objects:
		On entry : 
		On exit  : 
		Unchanged: 
 Data sizes:     COMRAM   BANK0   BANK1   BANK2   BANK3   BANK4   BANK5   BANK6   BANK7   BANK8   BANK9  BANK10  BANK11  BANK12  BANK13
      Params:         0       0       0       0       0       0       0       0       0       0       0       0       0       0       0
      Locals:         0       0       0       0       0       0       0       0       0       0       0       0       0       0       0
      Temps:          0       0       0       0       0       0       0       0       0       0       0       0       0       0       0
      Totals:         0       0       0       0       0       0       0       0       0       0       0       0       0       0       0
Total ram usage:        0 bytes
 Hardware stack levels used:    1
 Hardware stack levels required when called:   11
 This function calls:
		_SwTimerSetTimeout
		_SwTimerStart
		___lldiv
 This function is called by:
		_SetCallbackSoftwareTimers
		_SwTimersExecute
 This function uses a reentrant model


 *************** function _LORAWAN_ReceiveWindow1Callback *****************
 Defined at:
		line 796 in file "mcc_generated_files/LoRaWAN/lorawan.c"
 Parameters:    Size  Location     Type
  param           1  [STACK] unsigned char 
 Auto vars:     Size  Location     Type
  freq            4  [STACK] unsigned long 
 Return value:  Size  Location     Type
                  1  [STACK] void 
 Registers used:
		wreg, fsr0l, fsr0h, fsr1l, fsr1h, fsr2l, fsr2h, status,2, status,0, btemp+8, btemp+9, btemp+10, btemp+11, tblptrl, tblptrh, tblptru, prodl, prodh, cstack
 Tracked objects:
		On entry : 
		On exit  : 
		Unchanged: 
 Data sizes:     COMRAM   BANK0   BANK1   BANK2   BANK3   BANK4   BANK5   BANK6   BANK7   BANK8   BANK9  BANK10  BANK11  BANK12  BANK13
      Params:         0       0       0       0       0       0       0       0       0       0       0       0       0       0       0
      Locals:         0       0       0       0       0       0       0       0       0       0       0       0       0       0       0
      Temps:          0       0       0       0       0       0       0       0       0       0       0       0       0       0       0
      Totals:         0       0       0       0       0       0       0       0       0       0       0       0       0       0       0
Total ram usage:        0 bytes
 Hardware stack levels used:    1
 Hardware stack levels required when called:   13
 This function calls:
		_ConfigureRadioRx
		_GetRx1Freq
		_RADIO_ReceiveStart
		_RADIO_ReceiveStop
		_RADIO_ReleaseData
 This function is called by:
		_SetCallbackSoftwareTimers
		_SwTimersExecute
 This function uses a reentrant model


 *************** function _LORAWAN_ReceiveWindow2Callback *****************
 Defined at:
		line 827 in file "mcc_generated_files/LoRaWAN/lorawan.c"
 Parameters:    Size  Location     Type
  param           1  [STACK] unsigned char 
 Auto vars:     Size  Location     Type
		None
 Return value:  Size  Location     Type
                  1  [STACK] void 
 Registers used:
		wreg, fsr0l, fsr0h, fsr2l, fsr2h, status,2, status,0, pclat, btemp+1, btemp+2, btemp+11, tosl, tblptrl, tblptrh, tblptru, prodl, prodh, cstack
 Tracked objects:
		On entry : 
		On exit  : 
		Unchanged: 
 Data sizes:     COMRAM   BANK0   BANK1   BANK2   BANK3   BANK4   BANK5   BANK6   BANK7   BANK8   BANK9  BANK10  BANK11  BANK12  BANK13
      Params:         0       0       0       0       0       0       0       0       0       0       0       0       0       0       0
      Locals:         0       0       0       0       0       0       0       0       0       0       0       0       0       0       0
      Temps:          0       0       0       0       0       0       0       0       0       0       0       0       0       0       0
      Totals:         0       0       0       0       0       0       0       0       0       0       0       0       0       0       0
Total ram usage:        0 bytes
 Hardware stack levels used:    1
 Hardware stack levels required when called:   14
 This function calls:
		_ConfigureRadioRx
		_LORAWAN_EnterContinuousReceive
		_RADIO_GetStatus
		_RADIO_ReceiveStart
		_RADIO_ReceiveStop
		_RADIO_ReleaseData
		_ResetParametersForConfirmedTransmission
		_ResetParametersForUnconfirmedTransmission
		_RxDataDone
 This function is called by:
		_LORAWAN_RxTimeout
		_SetCallbackSoftwareTimers
		_SwTimersExecute
 This function uses a reentrant model


 *************** function _RADIO_WatchdogTimeout *****************
 Defined at:
		line 1408 in file "mcc_generated_files/LoRaWAN/radio_driver_SX1276.c"
 Parameters:    Size  Location     Type
  param           1  [STACK] unsigned char 
 Auto vars:     Size  Location     Type
		None
 Return value:  Size  Location     Type
                  1  [STACK] void 
 Registers used:
		wreg, fsr0l, fsr0h, fsr2l, fsr2h, status,2, status,0, pclat, btemp+1, btemp+2, btemp+11, tosl, tblptrl, tblptrh, tblptru, prodl, prodh, cstack
 Tracked objects:
		On entry : 
		On exit  : 
		Unchanged: 
 Data sizes:     COMRAM   BANK0   BANK1   BANK2   BANK3   BANK4   BANK5   BANK6   BANK7   BANK8   BANK9  BANK10  BANK11  BANK12  BANK13
      Params:         0       0       0       0       0       0       0       0       0       0       0       0       0       0       0
      Locals:         0       0       0       0       0       0       0       0       0       0       0       0       0       0       0
      Temps:          0       0       0       0       0       0       0       0       0       0       0       0       0       0       0
      Totals:         0       0       0       0       0       0       0       0       0       0       0       0       0       0       0
Total ram usage:        0 bytes
 Hardware stack levels used:    1
 Hardware stack levels required when called:   16
 This function calls:
		_LORAWAN_RxTimeout
		_LORAWAN_TxDone
		_RADIO_WriteMode
 This function is called by:
		_RADIO_Init
		_SwTimersExecute
 This function uses a reentrant model


 *************** function _RADIO_RxFSKTimeout *****************
 Defined at:
		line 1392 in file "mcc_generated_files/LoRaWAN/radio_driver_SX1276.c"
 Parameters:    Size  Location     Type
  param           1  [STACK] unsigned char 
 Auto vars:     Size  Location     Type
  irqFlags        1  [STACK] unsigned char 
 Return value:  Size  Location     Type
                  1  [STACK] void 
 Registers used:
		wreg, fsr0l, fsr0h, fsr1l, fsr1h, fsr2l, fsr2h, status,2, status,0, pclat, btemp+1, btemp+2, btemp+11, tosl, tblptrl, tblptrh, tblptru, prodl, prodh, cstack
 Tracked objects:
		On entry : 
		On exit  : 
		Unchanged: 
 Data sizes:     COMRAM   BANK0   BANK1   BANK2   BANK3   BANK4   BANK5   BANK6   BANK7   BANK8   BANK9  BANK10  BANK11  BANK12  BANK13
      Params:         0       0       0       0       0       0       0       0       0       0       0       0       0       0       0
      Locals:         0       0       0       0       0       0       0       0       0       0       0       0       0       0       0
      Temps:          0       0       0       0       0       0       0       0       0       0       0       0       0       0       0
      Totals:         0       0       0       0       0       0       0       0       0       0       0       0       0       0       0
Total ram usage:        0 bytes
 Hardware stack levels used:    1
 Hardware stack levels required when called:   16
 This function calls:
		_LORAWAN_RxTimeout
		_RADIO_RegisterRead
		_RADIO_WriteMode
		_SwTimerStop
 This function is called by:
		_RADIO_Init
		_SwTimersExecute
 This function uses a reentrant model


 *************** function _UnconfirmedTransmissionCallback *****************
 Defined at:
		line 997 in file "mcc_generated_files/LoRaWAN/lorawan.c"
 Parameters:    Size  Location     Type
  param           1  [STACK] unsigned char 
 Auto vars:     Size  Location     Type
		None
 Return value:  Size  Location     Type
                  1  [STACK] void 
 Registers used:
		wreg, fsr0l, fsr0h, fsr2l, fsr2h, status,2, status,0, pclat, btemp+1, btemp+2, tosl, tblptrl, tblptrh, tblptru, prodl, prodh, cstack
 Tracked objects:
		On entry : 
		On exit  : 
		Unchanged: 
 Data sizes:     COMRAM   BANK0   BANK1   BANK2   BANK3   BANK4   BANK5   BANK6   BANK7   BANK8   BANK9  BANK10  BANK11  BANK12  BANK13
      Params:         0       0       0       0       0       0       0       0       0       0       0       0       0       0       0
      Locals:         0       0       0       0       0       0       0       0       0       0       0       0       0       0       0
      Temps:          0       0       0       0       0       0       0       0       0       0       0       0       0       0       0
      Totals:         0       0       0       0       0       0       0       0       0       0       0       0       0       0       0
Total ram usage:        0 bytes
 Hardware stack levels used:    1
 Hardware stack levels required when called:   13
 This function calls:
		_RADIO_Transmit
		_ResetParametersForUnconfirmedTransmission
		_RxDataDone
		_SelectChannelForTransmission
 This function is called by:
		_SetCallbackSoftwareTimers
		_SwTimersExecute
 This function uses a reentrant model


 *************** function _GetRx1Freq *****************
 Defined at:
		line 883 in file "mcc_generated_files/LoRaWAN/lorawan_eu.c"
 Parameters:    Size  Location     Type
		None
 Auto vars:     Size  Location     Type
		None
 Return value:  Size  Location     Type
                  4    4[BANK0 ] unsigned long 
 Registers used:
		None
 Tracked objects:
		On entry : 
		On exit  : 
		Unchanged: 
 Data sizes:     COMRAM   BANK0   BANK1   BANK2   BANK3   BANK4   BANK5   BANK6   BANK7   BANK8   BANK9  BANK10  BANK11  BANK12  BANK13
      Params:         0       4       0       0       0       0       0       0       0       0       0       0       0       0       0
      Locals:         0       0       0       0       0       0       0       0       0       0       0       0       0       0       0
      Temps:          0       0       0       0       0       0       0       0       0       0       0       0       0       0       0
      Totals:         0       4       0       0       0       0       0       0       0       0       0       0       0       0       0
Total ram usage:        4 bytes
 Hardware stack levels used:    1
 Hardware stack levels required when called:    7
 This function calls:
		Nothing
 This function is called by:
		_LORAWAN_ReceiveWindow1Callback
 This function uses a non-reentrant model


 *************** function _RADIO_DIO5 *****************
 Defined at:
		line 1344 in file "mcc_generated_files/LoRaWAN/radio_driver_SX1276.c"
 Parameters:    Size  Location     Type
		None
 Auto vars:     Size  Location     Type
  dioMapping      1    0        unsigned char 
 Return value:  Size  Location     Type
                  1    wreg      void 
 Registers used:
		wreg, status,2, status,0, cstack
 Tracked objects:
		On entry : 
		On exit  : 
		Unchanged: 
 Data sizes:     COMRAM   BANK0   BANK1   BANK2   BANK3   BANK4   BANK5   BANK6   BANK7   BANK8   BANK9  BANK10  BANK11  BANK12  BANK13
      Params:         0       0       0       0       0       0       0       0       0       0       0       0       0       0       0
      Locals:         0       0       0       0       0       0       0       0       0       0       0       0       0       0       0
      Temps:          0       1       0       0       0       0       0       0       0       0       0       0       0       0       0
      Totals:         0       1       0       0       0       0       0       0       0       0       0       0       0       0       0
Total ram usage:        1 bytes
 Hardware stack levels used:    1
 Hardware stack levels required when called:   11
 This function calls:
		_RADIO_RegisterRead
		_RADIO_UnhandledInterrupt
 This function is called by:
		_LORAWAN_Mainloop
 This function uses a non-reentrant model


 *************** function _RADIO_DIO4 *****************
 Defined at:
		line 1321 in file "mcc_generated_files/LoRaWAN/radio_driver_SX1276.c"
 Parameters:    Size  Location     Type
		None
 Auto vars:     Size  Location     Type
  dioMapping      1    0        unsigned char 
 Return value:  Size  Location     Type
                  1    wreg      void 
 Registers used:
		wreg, status,2, status,0, cstack
 Tracked objects:
		On entry : 
		On exit  : 
		Unchanged: 
 Data sizes:     COMRAM   BANK0   BANK1   BANK2   BANK3   BANK4   BANK5   BANK6   BANK7   BANK8   BANK9  BANK10  BANK11  BANK12  BANK13
      Params:         0       0       0       0       0       0       0       0       0       0       0       0       0       0       0
      Locals:         0       0       0       0       0       0       0       0       0       0       0       0       0       0       0
      Temps:          0       1       0       0       0       0       0       0       0       0       0       0       0       0       0
      Totals:         0       1       0       0       0       0       0       0       0       0       0       0       0       0       0
Total ram usage:        1 bytes
 Hardware stack levels used:    1
 Hardware stack levels required when called:   11
 This function calls:
		_RADIO_RegisterRead
		_RADIO_UnhandledInterrupt
 This function is called by:
		_LORAWAN_Mainloop
 This function uses a non-reentrant model


 *************** function _RADIO_DIO3 *****************
 Defined at:
		line 1298 in file "mcc_generated_files/LoRaWAN/radio_driver_SX1276.c"
 Parameters:    Size  Location     Type
		None
 Auto vars:     Size  Location     Type
  dioMapping      1    0        unsigned char 
 Return value:  Size  Location     Type
                  1    wreg      void 
 Registers used:
		wreg, status,2, status,0, cstack
 Tracked objects:
		On entry : 
		On exit  : 
		Unchanged: 
 Data sizes:     COMRAM   BANK0   BANK1   BANK2   BANK3   BANK4   BANK5   BANK6   BANK7   BANK8   BANK9  BANK10  BANK11  BANK12  BANK13
      Params:         0       0       0       0       0       0       0       0       0       0       0       0       0       0       0
      Locals:         0       0       0       0       0       0       0       0       0       0       0       0       0       0       0
      Temps:          0       1       0       0       0       0       0       0       0       0       0       0       0       0       0
      Totals:         0       1       0       0       0       0       0       0       0       0       0       0       0       0       0
Total ram usage:        1 bytes
 Hardware stack levels used:    1
 Hardware stack levels required when called:   11
 This function calls:
		_RADIO_RegisterRead
		_RADIO_UnhandledInterrupt
 This function is called by:
		_LORAWAN_Mainloop
 This function uses a non-reentrant model


 *************** function _RADIO_DIO2 *****************
 Defined at:
		line 1268 in file "mcc_generated_files/LoRaWAN/radio_driver_SX1276.c"
 Parameters:    Size  Location     Type
		None
 Auto vars:     Size  Location     Type
  dioMapping      1   30[BANK0 ] unsigned char 
  opMode          1    0        unsigned char 
 Return value:  Size  Location     Type
                  1    wreg      void 
 Registers used:
		wreg, status,2, status,0, cstack
 Tracked objects:
		On entry : 
		On exit  : 
		Unchanged: 
 Data sizes:     COMRAM   BANK0   BANK1   BANK2   BANK3   BANK4   BANK5   BANK6   BANK7   BANK8   BANK9  BANK10  BANK11  BANK12  BANK13
      Params:         0       0       0       0       0       0       0       0       0       0       0       0       0       0       0
      Locals:         0       1       0       0       0       0       0       0       0       0       0       0       0       0       0
      Temps:          0       1       0       0       0       0       0       0       0       0       0       0       0       0       0
      Totals:         0       2       0       0       0       0       0       0       0       0       0       0       0       0       0
Total ram usage:        2 bytes
 Hardware stack levels used:    1
 Hardware stack levels required when called:   12
 This function calls:
		_RADIO_FHSSChangeChannel
		_RADIO_RegisterRead
		_RADIO_UnhandledInterrupt
 This function is called by:
		_LORAWAN_Mainloop
 This function uses a non-reentrant model


 *************** function _RADIO_DIO1 *****************
 Defined at:
		line 1231 in file "mcc_generated_files/LoRaWAN/radio_driver_SX1276.c"
 Parameters:    Size  Location     Type
		None
 Auto vars:     Size  Location     Type
  dioMapping      1  101[BANK0 ] unsigned char 
 Return value:  Size  Location     Type
                  1    wreg      void 
 Registers used:
		wreg, fsr0l, fsr0h, fsr2l, fsr2h, status,2, status,0, pclat, btemp+1, btemp+2, btemp+11, tosl, tblptrl, tblptrh, tblptru, prodl, prodh, cstack
 Tracked objects:
		On entry : 
		On exit  : 
		Unchanged: 
 Data sizes:     COMRAM   BANK0   BANK1   BANK2   BANK3   BANK4   BANK5   BANK6   BANK7   BANK8   BANK9  BANK10  BANK11  BANK12  BANK13
      Params:         0       0       0       0       0       0       0       0       0       0       0       0       0       0       0
      Locals:         0       1       0       0       0       0       0       0       0       0       0       0       0       0       0
      Temps:          0       1       0       0       0       0       0       0       0       0       0       0       0       0       0
      Totals:         0       2       0       0       0       0       0       0       0       0       0       0       0       0       0
Total ram usage:        2 bytes
 Hardware stack levels used:    1
 Hardware stack levels required when called:   17
 This function calls:
		_RADIO_FHSSChangeChannel
		_RADIO_RegisterRead
		_RADIO_RxTimeout
		_RADIO_UnhandledInterrupt
 This function is called by:
		_LORAWAN_Mainloop
 This function uses a non-reentrant model


 *************** function _RADIO_RxTimeout *****************
 Defined at:
		line 1066 in file "mcc_generated_files/LoRaWAN/radio_driver_SX1276.c"
 Parameters:    Size  Location     Type
		None
 Auto vars:     Size  Location     Type
		None
 Return value:  Size  Location     Type
                  1    wreg      void 
 Registers used:
		wreg, fsr0l, fsr0h, fsr2l, fsr2h, status,2, status,0, pclat, btemp+1, btemp+2, btemp+11, tosl, tblptrl, tblptrh, tblptru, prodl, prodh, cstack
 Tracked objects:
		On entry : 
		On exit  : 
		Unchanged: 
 Data sizes:     COMRAM   BANK0   BANK1   BANK2   BANK3   BANK4   BANK5   BANK6   BANK7   BANK8   BANK9  BANK10  BANK11  BANK12  BANK13
      Params:         0       0       0       0       0       0       0       0       0       0       0       0       0       0       0
      Locals:         0       0       0       0       0       0       0       0       0       0       0       0       0       0       0
      Temps:          0       0       0       0       0       0       0       0       0       0       0       0       0       0       0
      Totals:         0       0       0       0       0       0       0       0       0       0       0       0       0       0       0
Total ram usage:        0 bytes
 Hardware stack levels used:    1
 Hardware stack levels required when called:   16
 This function calls:
		_LORAWAN_RxTimeout
		_RADIO_RegisterWrite
		_RADIO_WriteMode
		_SwTimerStop
 This function is called by:
		_RADIO_DIO1
 This function uses a non-reentrant model


 *************** function _RADIO_FHSSChangeChannel *****************
 Defined at:
		line 1158 in file "mcc_generated_files/LoRaWAN/radio_driver_SX1276.c"
 Parameters:    Size  Location     Type
		None
 Auto vars:     Size  Location     Type
  irqFlags        1    0        unsigned char 
 Return value:  Size  Location     Type
                  1    wreg      void 
 Registers used:
		wreg, status,2, status,0, cstack
 Tracked objects:
		On entry : 
		On exit  : 
		Unchanged: 
 Data sizes:     COMRAM   BANK0   BANK1   BANK2   BANK3   BANK4   BANK5   BANK6   BANK7   BANK8   BANK9  BANK10  BANK11  BANK12  BANK13
      Params:         0       0       0       0       0       0       0       0       0       0       0       0       0       0       0
      Locals:         0       0       0       0       0       0       0       0       0       0       0       0       0       0       0
      Temps:          0       0       0       0       0       0       0       0       0       0       0       0       0       0       0
      Totals:         0       0       0       0       0       0       0       0       0       0       0       0       0       0       0
Total ram usage:        0 bytes
 Hardware stack levels used:    1
 Hardware stack levels required when called:   11
 This function calls:
		_RADIO_RegisterRead
		_RADIO_RegisterWrite
		_RADIO_WriteFrequency
 This function is called by:
		_RADIO_DIO1
		_RADIO_DIO2
 This function uses a non-reentrant model


 *************** function _RADIO_DIO0 *****************
 Defined at:
		line 1176 in file "mcc_generated_files/LoRaWAN/radio_driver_SX1276.c"
 Parameters:    Size  Location     Type
		None
 Auto vars:     Size  Location     Type
  opMode          1  146[BANK0 ] unsigned char 
  dioMapping      1  145[BANK0 ] unsigned char 
 Return value:  Size  Location     Type
                  1    wreg      void 
 Registers used:
		wreg, fsr0l, fsr0h, fsr1l, fsr1h, fsr2l, fsr2h, status,2, status,0, pclat, btemp+1, btemp+2, btemp+8, btemp+9, btemp+10, btemp+11, tosl, tblptrl, tblptrh, tblptru, prodl, prodh, cstack
 Tracked objects:
		On entry : 
		On exit  : 
		Unchanged: 
 Data sizes:     COMRAM   BANK0   BANK1   BANK2   BANK3   BANK4   BANK5   BANK6   BANK7   BANK8   BANK9  BANK10  BANK11  BANK12  BANK13
      Params:         0       0       0       0       0       0       0       0       0       0       0       0       0       0       0
      Locals:         0       2       0       0       0       0       0       0       0       0       0       0       0       0       0
      Temps:          0       2       0       0       0       0       0       0       0       0       0       0       0       0       0
      Totals:         0       4       0       0       0       0       0       0       0       0       0       0       0       0       0
Total ram usage:        4 bytes
 Hardware stack levels used:    1
 Hardware stack levels required when called:   17
 This function calls:
		_RADIO_FSKPacketSent
		_RADIO_FSKPayloadReady
		_RADIO_RegisterRead
		_RADIO_RxDone
		_RADIO_TxDone
		_RADIO_UnhandledInterrupt
 This function is called by:
		_LORAWAN_Mainloop
 This function uses a non-reentrant model


 *************** function _RADIO_UnhandledInterrupt *****************
 Defined at:
		line 1139 in file "mcc_generated_files/LoRaWAN/radio_driver_SX1276.c"
 Parameters:    Size  Location     Type
  modulation      1    wreg     enum E16925
 Auto vars:     Size  Location     Type
  modulation      1    8[BANK0 ] enum E16925
 Return value:  Size  Location     Type
                  1    wreg      void 
 Registers used:
		wreg, status,2, status,0, cstack
 Tracked objects:
		On entry : 
		On exit  : 
		Unchanged: 
 Data sizes:     COMRAM   BANK0   BANK1   BANK2   BANK3   BANK4   BANK5   BANK6   BANK7   BANK8   BANK9  BANK10  BANK11  BANK12  BANK13
      Params:         0       0       0       0       0       0       0       0       0       0       0       0       0       0       0
      Locals:         0       1       0       0       0       0       0       0       0       0       0       0       0       0       0
      Temps:          0       0       0       0       0       0       0       0       0       0       0       0       0       0       0
      Totals:         0       1       0       0       0       0       0       0       0       0       0       0       0       0       0
Total ram usage:        1 bytes
 Hardware stack levels used:    1
 Hardware stack levels required when called:   10
 This function calls:
		_RADIO_RegisterWrite
 This function is called by:
		_RADIO_DIO0
		_RADIO_DIO1
		_RADIO_DIO2
		_RADIO_DIO3
		_RADIO_DIO4
		_RADIO_DIO5
 This function uses a non-reentrant model


 *************** function _RADIO_TxDone *****************
 Defined at:
		line 1078 in file "mcc_generated_files/LoRaWAN/radio_driver_SX1276.c"
 Parameters:    Size  Location     Type
		None
 Auto vars:     Size  Location     Type
  timeOnAir       4  120[BANK0 ] unsigned long 
 Return value:  Size  Location     Type
                  1    wreg      void 
 Registers used:
		wreg, fsr0l, fsr0h, fsr2l, fsr2h, status,2, status,0, pclat, tosl, tblptrl, tblptrh, tblptru, prodl, prodh, cstack
 Tracked objects:
		On entry : 
		On exit  : 
		Unchanged: 
 Data sizes:     COMRAM   BANK0   BANK1   BANK2   BANK3   BANK4   BANK5   BANK6   BANK7   BANK8   BANK9  BANK10  BANK11  BANK12  BANK13
      Params:         0       0       0       0       0       0       0       0       0       0       0       0       0       0       0
      Locals:         0       8       0       0       0       0       0       0       0       0       0       0       0       0       0
      Temps:          0       0       0       0       0       0       0       0       0       0       0       0       0       0       0
      Totals:         0       8       0       0       0       0       0       0       0       0       0       0       0       0       0
Total ram usage:        8 bytes
 Hardware stack levels used:    1
 Hardware stack levels required when called:   15
 This function calls:
		_LORAWAN_TxDone
		_RADIO_RegisterWrite
		_RADIO_WriteMode
		_SwTimerReadValue
		_SwTimerStop
		___lmul
 This function is called by:
		_RADIO_DIO0
 This function uses a non-reentrant model


 *************** function _RADIO_RxDone *****************
 Defined at:
		line 961 in file "mcc_generated_files/LoRaWAN/radio_driver_SX1276.c"
 Parameters:    Size  Location     Type
		None
 Auto vars:     Size  Location     Type
  i               1  142[BANK0 ] unsigned char 
  irqFlags        1  141[BANK0 ] unsigned char 
 Return value:  Size  Location     Type
                  1    wreg      void 
 Registers used:
		wreg, fsr0l, fsr0h, fsr1l, fsr1h, fsr2l, fsr2h, status,2, status,0, pclat, btemp+8, btemp+9, btemp+10, btemp+11, tosl, tblptrl, tblptrh, tblptru, prodl, prodh, cstack
 Tracked objects:
		On entry : 
		On exit  : 
		Unchanged: 
 Data sizes:     COMRAM   BANK0   BANK1   BANK2   BANK3   BANK4   BANK5   BANK6   BANK7   BANK8   BANK9  BANK10  BANK11  BANK12  BANK13
      Params:         0       0       0       0       0       0       0       0       0       0       0       0       0       0       0
      Locals:         0       2       0       0       0       0       0       0       0       0       0       0       0       0       0
      Temps:          0       0       0       0       0       0       0       0       0       0       0       0       0       0       0
      Totals:         0       2       0       0       0       0       0       0       0       0       0       0       0       0       0
Total ram usage:        2 bytes
 Hardware stack levels used:    1
 Hardware stack levels required when called:   16
 This function calls:
		_HALSPICSAssert
		_HALSPICSDeassert
		_HALSPISend
		_LORAWAN_RxDone
		_RADIO_RegisterRead
		_RADIO_RegisterWrite
		_RADIO_WriteMode
		_SwTimerStop
		___abdiv
 This function is called by:
		_RADIO_DIO0
 This function uses a non-reentrant model


 *************** function ___abdiv *****************
 Defined at:
		line 4 in file "C:\Program Files (x86)\Microchip\xc8\v1.38\sources\common\abdiv.c"
 Parameters:    Size  Location     Type
  dividend        1    wreg     char 
  divisor         1    4[BANK0 ] char 
 Auto vars:     Size  Location     Type
  dividend        1    8[BANK0 ] char 
  quotient        1    7[BANK0 ] char 
  sign            1    6[BANK0 ] unsigned char 
  counter         1    5[BANK0 ] unsigned char 
 Return value:  Size  Location     Type
                  1    wreg      char 
 Registers used:
		wreg, status,2, status,0
 Tracked objects:
		On entry : 
		On exit  : 
		Unchanged: 
 Data sizes:     COMRAM   BANK0   BANK1   BANK2   BANK3   BANK4   BANK5   BANK6   BANK7   BANK8   BANK9  BANK10  BANK11  BANK12  BANK13
      Params:         0       1       0       0       0       0       0       0       0       0       0       0       0       0       0
      Locals:         0       4       0       0       0       0       0       0       0       0       0       0       0       0       0
      Temps:          0       0       0       0       0       0       0       0       0       0       0       0       0       0       0
      Totals:         0       5       0       0       0       0       0       0       0       0       0       0       0       0       0
Total ram usage:        5 bytes
 Hardware stack levels used:    1
 Hardware stack levels required when called:    7
 This function calls:
		Nothing
 This function is called by:
		_RADIO_RxDone
 This function uses a non-reentrant model


 *************** function _RADIO_FSKPayloadReady *****************
 Defined at:
		line 1010 in file "mcc_generated_files/LoRaWAN/radio_driver_SX1276.c"
 Parameters:    Size  Location     Type
		None
 Auto vars:     Size  Location     Type
  i               1  142[BANK0 ] unsigned char 
  irqFlags        1  141[BANK0 ] unsigned char 
 Return value:  Size  Location     Type
                  1    wreg      void 
 Registers used:
		wreg, fsr0l, fsr0h, fsr1l, fsr1h, fsr2l, fsr2h, status,2, status,0, pclat, btemp+1, btemp+2, btemp+8, btemp+9, btemp+10, btemp+11, tosl, tblptrl, tblptrh, tblptru, prodl, prodh, cstack
 Tracked objects:
		On entry : 
		On exit  : 
		Unchanged: 
 Data sizes:     COMRAM   BANK0   BANK1   BANK2   BANK3   BANK4   BANK5   BANK6   BANK7   BANK8   BANK9  BANK10  BANK11  BANK12  BANK13
      Params:         0       0       0       0       0       0       0       0       0       0       0       0       0       0       0
      Locals:         0       2       0       0       0       0       0       0       0       0       0       0       0       0       0
      Temps:          0       0       0       0       0       0       0       0       0       0       0       0       0       0       0
      Totals:         0       2       0       0       0       0       0       0       0       0       0       0       0       0       0
Total ram usage:        2 bytes
 Hardware stack levels used:    1
 Hardware stack levels required when called:   16
 This function calls:
		_HALSPICSAssert
		_HALSPICSDeassert
		_HALSPISend
		_LORAWAN_RxDone
		_LORAWAN_RxTimeout
		_RADIO_RegisterRead
		_RADIO_WriteMode
		_SwTimerStop
 This function is called by:
		_RADIO_DIO0
 This function uses a non-reentrant model


 *************** function _LORAWAN_RxTimeout *****************
 Defined at:
		line 464 in file "mcc_generated_files/LoRaWAN/lorawan_eu.c"
 Parameters:    Size  Location     Type
		None
 Auto vars:     Size  Location     Type
  minim           4   95[BANK0 ] unsigned long 
  i               1   99[BANK0 ] unsigned char 
 Return value:  Size  Location     Type
                  1    wreg      void 
 Registers used:
		wreg, fsr0l, fsr0h, fsr2l, fsr2h, status,2, status,0, pclat, btemp+1, btemp+2, btemp+11, tosl, tblptrl, tblptrh, tblptru, prodl, prodh, cstack
 Tracked objects:
		On entry : 
		On exit  : 
		Unchanged: 
 Data sizes:     COMRAM   BANK0   BANK1   BANK2   BANK3   BANK4   BANK5   BANK6   BANK7   BANK8   BANK9  BANK10  BANK11  BANK12  BANK13
      Params:         0       0       0       0       0       0       0       0       0       0       0       0       0       0       0
      Locals:         0       5       0       0       0       0       0       0       0       0       0       0       0       0       0
      Temps:          0       4       0       0       0       0       0       0       0       0       0       0       0       0       0
      Totals:         0       9       0       0       0       0       0       0       0       0       0       0       0       0       0
Total ram usage:        9 bytes
 Hardware stack levels used:    1
 Hardware stack levels required when called:   15
 This function calls:
		_LORAWAN_ReceiveWindow2Callback
		_RADIO_Transmit
		_ResetParametersForConfirmedTransmission
		_ResetParametersForUnconfirmedTransmission
		_RxDataDone
		_SelectChannelForTransmission
		_SetJoinFailState
		_SwTimerSetTimeout
		_SwTimerStart
		___lldiv
 This function is called by:
		_RADIO_FSKPayloadReady
		_RADIO_RxTimeout
		_RADIO_RxFSKTimeout
		_RADIO_WatchdogTimeout
 This function uses a non-reentrant model


 *************** function _LORAWAN_RxDone *****************
 Defined at:
		line 1121 in file "mcc_generated_files/LoRaWAN/lorawan.c"
 Parameters:    Size  Location     Type
  buffer          2  107[BANK1 ] PTR unsigned char 
		 -> LORAWAN_RxDone@hdr(2), radioBuffer(271), 
  bufferLength    1  109[BANK1 ] unsigned char 
 Auto vars:     Size  Location     Type
  hdr             2   18[BANK3 ] PTR struct .
		 -> LORAWAN_RxDone@hdr(2), radioBuffer(271), 
  joinAccept      2   15[BANK3 ] PTR struct .
		 -> LORAWAN_RxDone@hdr(2), radioBuffer(271), 
  computedMic     4   11[BANK3 ] unsigned long 
  extractedMic    4    3[BANK3 ] unsigned long 
  packet          2    9[BANK3 ] PTR unsigned char 
		 -> LORAWAN_RxDone@hdr(2), radioBuffer(271), NULL(0), 
  frmPayloadLe    1   17[BANK3 ] unsigned char 
  temp            1    8[BANK3 ] unsigned char 
  bufferIndex     1    7[BANK3 ] unsigned char 
  mhdr            1    2[BANK3 ] struct .
  channelIndex    1    1[BANK3 ] unsigned char 
  fPort           1    0[BANK3 ] unsigned char 
 Return value:  Size  Location     Type
                  1    wreg      enum E17365
 Registers used:
		wreg, fsr0l, fsr0h, fsr1l, fsr1h, fsr2l, fsr2h, status,2, status,0, pclat, btemp+8, btemp+9, btemp+10, btemp+11, tosl, tblptrl, tblptrh, tblptru, prodl, prodh, cstack
 Tracked objects:
		On entry : 
		On exit  : 
		Unchanged: 
 Data sizes:     COMRAM   BANK0   BANK1   BANK2   BANK3   BANK4   BANK5   BANK6   BANK7   BANK8   BANK9  BANK10  BANK11  BANK12  BANK13
      Params:         0       0       3       0       0       0       0       0       0       0       0       0       0       0       0
      Locals:         0       0       0       0      20       0       0       0       0       0       0       0       0       0       0
      Temps:          0       5       0       0       0       0       0       0       0       0       0       0       0       0       0
      Totals:         0       5       3       0      20       0       0       0       0       0       0       0       0       0       0
Total ram usage:       28 bytes
 Hardware stack levels used:    1
 Hardware stack levels required when called:   15
 This function calls:
		_AESCmac
		_AESEncodeLoRa
		_AssembleEncryptionBlock
		_CheckFlags
		_CheckMcastFlags
		_ComputeMic
		_ComputeSessionKeys
		_EncryptFRMPayload
		_ExtractMic
		_LORAWAN_EnterContinuousReceive
		_LORAWAN_Send
		_MacExecuteCommands
		_RADIO_GetStatus
		_RADIO_ReleaseData
		_RxDataDone
		_SearchAvailableChannel
		_SetJoinFailState
		_SetReceptionNotOkState
		_StartReTxTimer
		_SwTimerStop
		_UpdateCfList
		_UpdateDLSettings
		_UpdateJoinSuccessState
		_UpdateReceiveDelays
		_UpdateRetransmissionAckTimeoutState
		_memcpy
 This function is called by:
		_RADIO_RxDone
		_RADIO_FSKPayloadReady
 This function uses a non-reentrant model


 *************** function _UpdateRetransmissionAckTimeoutState *****************
 Defined at:
		line 1034 in file "mcc_generated_files/LoRaWAN/lorawan.c"
 Parameters:    Size  Location     Type
		None
 Auto vars:     Size  Location     Type
		None
 Return value:  Size  Location     Type
                  1    wreg      void 
 Registers used:
		wreg, fsr2l, fsr2h, status,2, status,0, prodl, prodh, cstack
 Tracked objects:
		On entry : 
		On exit  : 
		Unchanged: 
 Data sizes:     COMRAM   BANK0   BANK1   BANK2   BANK3   BANK4   BANK5   BANK6   BANK7   BANK8   BANK9  BANK10  BANK11  BANK12  BANK13
      Params:         0       0       0       0       0       0       0       0       0       0       0       0       0       0       0
      Locals:         0       0       0       0       0       0       0       0       0       0       0       0       0       0       0
      Temps:          0       4       0       0       0       0       0       0       0       0       0       0       0       0       0
      Totals:         0       4       0       0       0       0       0       0       0       0       0       0       0       0       0
Total ram usage:        4 bytes
 Hardware stack levels used:    1
 Hardware stack levels required when called:   11
 This function calls:
		_SwTimerSetTimeout
		_SwTimerStart
		___lldiv
 This function is called by:
		_AckRetransmissionCallback
		_LORAWAN_RxDone
 This function uses a non-reentrant model


 *************** function _UpdateDLSettings *****************
 Defined at:
		line 888 in file "mcc_generated_files/LoRaWAN/lorawan_eu.c"
 Parameters:    Size  Location     Type
  dlRx2Dr         1    wreg     unsigned char 
  dlRx1DrOffse    1    4[BANK0 ] unsigned char 
 Auto vars:     Size  Location     Type
  dlRx2Dr         1    5[BANK0 ] unsigned char 
 Return value:  Size  Location     Type
                  1    wreg      void 
 Registers used:
		wreg, status,2, status,0
 Tracked objects:
		On entry : 
		On exit  : 
		Unchanged: 
 Data sizes:     COMRAM   BANK0   BANK1   BANK2   BANK3   BANK4   BANK5   BANK6   BANK7   BANK8   BANK9  BANK10  BANK11  BANK12  BANK13
      Params:         0       1       0       0       0       0       0       0       0       0       0       0       0       0       0
      Locals:         0       1       0       0       0       0       0       0       0       0       0       0       0       0       0
      Temps:          0       0       0       0       0       0       0       0       0       0       0       0       0       0       0
      Totals:         0       2       0       0       0       0       0       0       0       0       0       0       0       0       0
Total ram usage:        2 bytes
 Hardware stack levels used:    1
 Hardware stack levels required when called:    7
 This function calls:
		Nothing
 This function is called by:
		_LORAWAN_RxDone
 This function uses a non-reentrant model


 *************** function _UpdateCfList *****************
 Defined at:
		line 824 in file "mcc_generated_files/LoRaWAN/lorawan_eu.c"
 Parameters:    Size  Location     Type
  bufferLength    1    wreg     unsigned char 
  joinAccept      2   64[BANK0 ] PTR struct .
		 -> LORAWAN_RxDone@hdr(2), radioBuffer(271), 
 Auto vars:     Size  Location     Type
  bufferLength    1   68[BANK0 ] unsigned char 
  frequency       4   69[BANK0 ] unsigned long 
  i               1   74[BANK0 ] unsigned char 
  channelIndex    1   73[BANK0 ] unsigned char 
 Return value:  Size  Location     Type
                  1    wreg      void 
 Registers used:
		wreg, fsr0l, fsr0h, fsr2l, fsr2h, status,2, status,0, tblptrl, tblptrh, tblptru, prodl, prodh, cstack
 Tracked objects:
		On entry : 
		On exit  : 
		Unchanged: 
 Data sizes:     COMRAM   BANK0   BANK1   BANK2   BANK3   BANK4   BANK5   BANK6   BANK7   BANK8   BANK9  BANK10  BANK11  BANK12  BANK13
      Params:         0       2       0       0       0       0       0       0       0       0       0       0       0       0       0
      Locals:         0       7       0       0       0       0       0       0       0       0       0       0       0       0       0
      Temps:          0       2       0       0       0       0       0       0       0       0       0       0       0       0       0
      Totals:         0      11       0       0       0       0       0       0       0       0       0       0       0       0       0
Total ram usage:       11 bytes
 Hardware stack levels used:    1
 Hardware stack levels required when called:    9
 This function calls:
		_LORAWAN_SetChannelIdStatus
		_ValidateFrequency
		___lmul
		_memcpy
 This function is called by:
		_LORAWAN_RxDone
 This function uses a non-reentrant model


 *************** function _StartReTxTimer *****************
 Defined at:
		line 902 in file "mcc_generated_files/LoRaWAN/lorawan_eu.c"
 Parameters:    Size  Location     Type
		None
 Auto vars:     Size  Location     Type
  minim           4   56[BANK0 ] unsigned long 
  i               1   60[BANK0 ] unsigned char 
 Return value:  Size  Location     Type
                  1    wreg      void 
 Registers used:
		wreg, fsr2l, fsr2h, status,2, status,0, prodl, prodh, cstack
 Tracked objects:
		On entry : 
		On exit  : 
		Unchanged: 
 Data sizes:     COMRAM   BANK0   BANK1   BANK2   BANK3   BANK4   BANK5   BANK6   BANK7   BANK8   BANK9  BANK10  BANK11  BANK12  BANK13
      Params:         0       0       0       0       0       0       0       0       0       0       0       0       0       0       0
      Locals:         0       5       0       0       0       0       0       0       0       0       0       0       0       0       0
      Temps:          0       4       0       0       0       0       0       0       0       0       0       0       0       0       0
      Totals:         0       9       0       0       0       0       0       0       0       0       0       0       0       0       0
Total ram usage:        9 bytes
 Hardware stack levels used:    1
 Hardware stack levels required when called:   11
 This function calls:
		_SwTimerSetTimeout
		_SwTimerStart
		___lldiv
 This function is called by:
		_LORAWAN_RxDone
 This function uses a non-reentrant model


 *************** function _SetReceptionNotOkState *****************
 Defined at:
		line 1997 in file "mcc_generated_files/LoRaWAN/lorawan.c"
 Parameters:    Size  Location     Type
		None
 Auto vars:     Size  Location     Type
		None
 Return value:  Size  Location     Type
                  1    wreg      void 
 Registers used:
		wreg, fsr0l, fsr0h, fsr2l, fsr2h, status,2, status,0, pclat, tosl, tblptrl, tblptrh, tblptru, prodl, prodh, cstack
 Tracked objects:
		On entry : 
		On exit  : 
		Unchanged: 
 Data sizes:     COMRAM   BANK0   BANK1   BANK2   BANK3   BANK4   BANK5   BANK6   BANK7   BANK8   BANK9  BANK10  BANK11  BANK12  BANK13
      Params:         0       0       0       0       0       0       0       0       0       0       0       0       0       0       0
      Locals:         0       0       0       0       0       0       0       0       0       0       0       0       0       0       0
      Temps:          0       0       0       0       0       0       0       0       0       0       0       0       0       0       0
      Totals:         0       0       0       0       0       0       0       0       0       0       0       0       0       0       0
Total ram usage:        0 bytes
 Hardware stack levels used:    1
 Hardware stack levels required when called:   14
 This function calls:
		_LORAWAN_EnterContinuousReceive
		_RxDataDone
 This function is called by:
		_LORAWAN_RxDone
 This function uses a non-reentrant model


 *************** function _SetJoinFailState *****************
 Defined at:
		line 1104 in file "mcc_generated_files/LoRaWAN/lorawan.c"
 Parameters:    Size  Location     Type
		None
 Auto vars:     Size  Location     Type
		None
 Return value:  Size  Location     Type
                  1    wreg      void 
 Registers used:
		wreg, status,2, status,0, pclat, tosl, cstack
 Tracked objects:
		On entry : 
		On exit  : 
		Unchanged: 
 Data sizes:     COMRAM   BANK0   BANK1   BANK2   BANK3   BANK4   BANK5   BANK6   BANK7   BANK8   BANK9  BANK10  BANK11  BANK12  BANK13
      Params:         0       0       0       0       0       0       0       0       0       0       0       0       0       0       0
      Locals:         0       0       0       0       0       0       0       0       0       0       0       0       0       0       0
      Temps:          0       0       0       0       0       0       0       0       0       0       0       0       0       0       0
      Totals:         0       0       0       0       0       0       0       0       0       0       0       0       0       0       0
Total ram usage:        0 bytes
 Hardware stack levels used:    1
 Hardware stack levels required when called:    8
 This function calls:
		_RxJoinResponse
 This function is called by:
		_LORAWAN_RxTimeout
		_LORAWAN_RxDone
 This function uses a non-reentrant model


 *************** function _RxJoinResponse *****************
 Defined at:
		line 112 in file "main.c"
 Parameters:    Size  Location     Type
  status          1    wreg     unsigned char 
 Auto vars:     Size  Location     Type
  status          1    0[COMRAM] unsigned char 
 Return value:  Size  Location     Type
                  1    wreg      void 
 Registers used:
		wreg, status,2
 Tracked objects:
		On entry : 
		On exit  : 
		Unchanged: 
 Data sizes:     COMRAM   BANK0   BANK1   BANK2   BANK3   BANK4   BANK5   BANK6   BANK7   BANK8   BANK9  BANK10  BANK11  BANK12  BANK13
      Params:         0       0       0       0       0       0       0       0       0       0       0       0       0       0       0
      Locals:         0       0       0       0       0       0       0       0       0       0       0       0       0       0       0
      Temps:          0       0       0       0       0       0       0       0       0       0       0       0       0       0       0
      Totals:         0       0       0       0       0       0       0       0       0       0       0       0       0       0       0
Total ram usage:        0 bytes
 Hardware stack levels used:    1
 Hardware stack levels required when called:    7
 This function calls:
		Nothing
 This function is called by:
		_main
		_SetJoinFailState
		_UpdateJoinSuccessState
 This function uses a non-reentrant model


 *************** function _MacExecuteCommands *****************
 Defined at:
		line 1575 in file "mcc_generated_files/LoRaWAN/lorawan.c"
 Parameters:    Size  Location     Type
  buffer          2   72[BANK0 ] PTR unsigned char 
		 -> LORAWAN_RxDone@hdr(2), radioBuffer(271), 
  fOptsLen        1   74[BANK0 ] unsigned char 
 Auto vars:     Size  Location     Type
  ptr             2   78[BANK0 ] PTR unsigned char 
		 -> LORAWAN_RxDone@hdr(2), radioBuffer(271), 
  done            1   77[BANK0 ] unsigned char 
 Return value:  Size  Location     Type
                  2   72[BANK0 ] PTR unsigned char 
 Registers used:
		wreg, fsr0l, fsr0h, fsr2l, fsr2h, status,2, status,0, prodl, prodh, cstack
 Tracked objects:
		On entry : 
		On exit  : 
		Unchanged: 
 Data sizes:     COMRAM   BANK0   BANK1   BANK2   BANK3   BANK4   BANK5   BANK6   BANK7   BANK8   BANK9  BANK10  BANK11  BANK12  BANK13
      Params:         0       3       0       0       0       0       0       0       0       0       0       0       0       0       0
      Locals:         0       3       0       0       0       0       0       0       0       0       0       0       0       0       0
      Temps:          0       2       0       0       0       0       0       0       0       0       0       0       0       0       0
      Totals:         0       8       0       0       0       0       0       0       0       0       0       0       0       0       0
Total ram usage:        8 bytes
 Hardware stack levels used:    1
 Hardware stack levels required when called:   11
 This function calls:
		_ExecuteDevStatus
		_ExecuteDutyCycle
		_ExecuteLinkAdr
		_ExecuteLinkCheck
		_ExecuteNewChannel
		_ExecuteRxParamSetupReq
		_ExecuteRxTimingSetup
 This function is called by:
		_LORAWAN_RxDone
 This function uses a non-reentrant model


 *************** function _ExecuteRxTimingSetup *****************
 Defined at:
		line 1659 in file "mcc_generated_files/LoRaWAN/lorawan.c"
 Parameters:    Size  Location     Type
  ptr             2   11[BANK0 ] PTR unsigned char 
		 -> LORAWAN_RxDone@hdr(2), radioBuffer(271), 
 Auto vars:     Size  Location     Type
  delay           1   13[BANK0 ] unsigned char 
 Return value:  Size  Location     Type
                  2   11[BANK0 ] PTR unsigned char 
 Registers used:
		wreg, fsr2l, fsr2h, status,2, status,0, prodl, prodh, cstack
 Tracked objects:
		On entry : 
		On exit  : 
		Unchanged: 
 Data sizes:     COMRAM   BANK0   BANK1   BANK2   BANK3   BANK4   BANK5   BANK6   BANK7   BANK8   BANK9  BANK10  BANK11  BANK12  BANK13
      Params:         0       2       0       0       0       0       0       0       0       0       0       0       0       0       0
      Locals:         0       1       0       0       0       0       0       0       0       0       0       0       0       0       0
      Temps:          0       0       0       0       0       0       0       0       0       0       0       0       0       0       0
      Totals:         0       3       0       0       0       0       0       0       0       0       0       0       0       0       0
Total ram usage:        3 bytes
 Hardware stack levels used:    1
 Hardware stack levels required when called:    9
 This function calls:
		_UpdateReceiveDelays
 This function is called by:
		_MacExecuteCommands
 This function uses a non-reentrant model


 *************** function _UpdateReceiveDelays *****************
 Defined at:
		line 2026 in file "mcc_generated_files/LoRaWAN/lorawan.c"
 Parameters:    Size  Location     Type
  delay           1    wreg     unsigned char 
 Auto vars:     Size  Location     Type
  delay           1   10[BANK0 ] unsigned char 
 Return value:  Size  Location     Type
                  1    wreg      void 
 Registers used:
		wreg, status,2, status,0, prodl, prodh, cstack
 Tracked objects:
		On entry : 
		On exit  : 
		Unchanged: 
 Data sizes:     COMRAM   BANK0   BANK1   BANK2   BANK3   BANK4   BANK5   BANK6   BANK7   BANK8   BANK9  BANK10  BANK11  BANK12  BANK13
      Params:         0       0       0       0       0       0       0       0       0       0       0       0       0       0       0
      Locals:         0       1       0       0       0       0       0       0       0       0       0       0       0       0       0
      Temps:          0       0       0       0       0       0       0       0       0       0       0       0       0       0       0
      Totals:         0       1       0       0       0       0       0       0       0       0       0       0       0       0       0
Total ram usage:        1 bytes
 Hardware stack levels used:    1
 Hardware stack levels required when called:    8
 This function calls:
		___wmul
 This function is called by:
		_LORAWAN_RxDone
		_ExecuteRxTimingSetup
 This function uses a non-reentrant model


 *************** function ___wmul *****************
 Defined at:
		line 15 in file "C:\Program Files (x86)\Microchip\xc8\v1.38\sources\common\Umul16.c"
 Parameters:    Size  Location     Type
  multiplier      2    4[BANK0 ] unsigned int 
  multiplicand    2    6[BANK0 ] unsigned int 
 Auto vars:     Size  Location     Type
  product         2    8[BANK0 ] unsigned int 
 Return value:  Size  Location     Type
                  2    4[BANK0 ] unsigned int 
 Registers used:
		wreg, status,2, status,0, prodl, prodh
 Tracked objects:
		On entry : 
		On exit  : 
		Unchanged: 
 Data sizes:     COMRAM   BANK0   BANK1   BANK2   BANK3   BANK4   BANK5   BANK6   BANK7   BANK8   BANK9  BANK10  BANK11  BANK12  BANK13
      Params:         0       4       0       0       0       0       0       0       0       0       0       0       0       0       0
      Locals:         0       2       0       0       0       0       0       0       0       0       0       0       0       0       0
      Temps:          0       0       0       0       0       0       0       0       0       0       0       0       0       0       0
      Totals:         0       6       0       0       0       0       0       0       0       0       0       0       0       0       0
Total ram usage:        6 bytes
 Hardware stack levels used:    1
 Hardware stack levels required when called:    7
 This function calls:
		Nothing
 This function is called by:
		_UpdateReceiveDelays
 This function uses a non-reentrant model


 *************** function _ExecuteRxParamSetupReq *****************
 Defined at:
		line 740 in file "mcc_generated_files/LoRaWAN/lorawan_eu.c"
 Parameters:    Size  Location     Type
  ptr             2   64[BANK0 ] PTR unsigned char 
		 -> LORAWAN_RxDone@hdr(2), radioBuffer(271), 
 Auto vars:     Size  Location     Type
  frequency       4   66[BANK0 ] unsigned long 
  dlSettings      1   70[BANK0 ] struct .
 Return value:  Size  Location     Type
                  2   64[BANK0 ] PTR unsigned char 
 Registers used:
		wreg, fsr2l, fsr2h, status,2, status,0, prodl, prodh, cstack
 Tracked objects:
		On entry : 
		On exit  : 
		Unchanged: 
 Data sizes:     COMRAM   BANK0   BANK1   BANK2   BANK3   BANK4   BANK5   BANK6   BANK7   BANK8   BANK9  BANK10  BANK11  BANK12  BANK13
      Params:         0       2       0       0       0       0       0       0       0       0       0       0       0       0       0
      Locals:         0       5       0       0       0       0       0       0       0       0       0       0       0       0       0
      Temps:          0       0       0       0       0       0       0       0       0       0       0       0       0       0       0
      Totals:         0       7       0       0       0       0       0       0       0       0       0       0       0       0       0
Total ram usage:        7 bytes
 Hardware stack levels used:    1
 Hardware stack levels required when called:    8
 This function calls:
		_UpdateReceiveWindow2Parameters
		_ValidateDataRate
		_ValidateFrequency
		_ValidateRxOffset
		___lmul
 This function is called by:
		_MacExecuteCommands
 This function uses a non-reentrant model


 *************** function _ValidateRxOffset *****************
 Defined at:
		line 1076 in file "mcc_generated_files/LoRaWAN/lorawan_eu.c"
 Parameters:    Size  Location     Type
  rxOffset        1    wreg     unsigned char 
 Auto vars:     Size  Location     Type
  rxOffset        1    4[BANK0 ] unsigned char 
  result          1    5[BANK0 ] enum E17190
 Return value:  Size  Location     Type
                  1    wreg      enum E17190
 Registers used:
		wreg, status,2, status,0
 Tracked objects:
		On entry : 
		On exit  : 
		Unchanged: 
 Data sizes:     COMRAM   BANK0   BANK1   BANK2   BANK3   BANK4   BANK5   BANK6   BANK7   BANK8   BANK9  BANK10  BANK11  BANK12  BANK13
      Params:         0       0       0       0       0       0       0       0       0       0       0       0       0       0       0
      Locals:         0       2       0       0       0       0       0       0       0       0       0       0       0       0       0
      Temps:          0       0       0       0       0       0       0       0       0       0       0       0       0       0       0
      Totals:         0       2       0       0       0       0       0       0       0       0       0       0       0       0       0
Total ram usage:        2 bytes
 Hardware stack levels used:    1
 Hardware stack levels required when called:    7
 This function calls:
		Nothing
 This function is called by:
		_ExecuteRxParamSetupReq
 This function uses a non-reentrant model


 *************** function _UpdateReceiveWindow2Parameters *****************
 Defined at:
		line 1084 in file "mcc_generated_files/LoRaWAN/lorawan.c"
 Parameters:    Size  Location     Type
  frequency       4    4[BANK0 ] unsigned long 
  dataRate        1    8[BANK0 ] unsigned char 
 Auto vars:     Size  Location     Type
		None
 Return value:  Size  Location     Type
                  1    wreg      void 
 Registers used:
		None
 Tracked objects:
		On entry : 
		On exit  : 
		Unchanged: 
 Data sizes:     COMRAM   BANK0   BANK1   BANK2   BANK3   BANK4   BANK5   BANK6   BANK7   BANK8   BANK9  BANK10  BANK11  BANK12  BANK13
      Params:         0       5       0       0       0       0       0       0       0       0       0       0       0       0       0
      Locals:         0       0       0       0       0       0       0       0       0       0       0       0       0       0       0
      Temps:          0       0       0       0       0       0       0       0       0       0       0       0       0       0       0
      Totals:         0       5       0       0       0       0       0       0       0       0       0       0       0       0       0
Total ram usage:        5 bytes
 Hardware stack levels used:    1
 Hardware stack levels required when called:    7
 This function calls:
		Nothing
 This function is called by:
		_ExecuteRxParamSetupReq
 This function uses a non-reentrant model


 *************** function _ExecuteNewChannel *****************
 Defined at:
		line 677 in file "mcc_generated_files/LoRaWAN/lorawan_eu.c"
 Parameters:    Size  Location     Type
  ptr             2   64[BANK0 ] PTR unsigned char 
		 -> LORAWAN_RxDone@hdr(2), radioBuffer(271), 
 Auto vars:     Size  Location     Type
  frequency       4   67[BANK0 ] unsigned long 
  channelIndex    1   71[BANK0 ] unsigned char 
  drRange         1   66[BANK0 ] struct .
 Return value:  Size  Location     Type
                  2   64[BANK0 ] PTR unsigned char 
 Registers used:
		wreg, fsr2l, fsr2h, status,2, status,0, prodl, prodh, cstack
 Tracked objects:
		On entry : 
		On exit  : 
		Unchanged: 
 Data sizes:     COMRAM   BANK0   BANK1   BANK2   BANK3   BANK4   BANK5   BANK6   BANK7   BANK8   BANK9  BANK10  BANK11  BANK12  BANK13
      Params:         0       2       0       0       0       0       0       0       0       0       0       0       0       0       0
      Locals:         0       6       0       0       0       0       0       0       0       0       0       0       0       0       0
      Temps:          0       0       0       0       0       0       0       0       0       0       0       0       0       0       0
      Totals:         0       8       0       0       0       0       0       0       0       0       0       0       0       0       0
Total ram usage:        8 bytes
 Hardware stack levels used:    1
 Hardware stack levels required when called:    9
 This function calls:
		_LORAWAN_SetChannelIdStatus
		_UpdateChannelIdStatus
		_UpdateDataRange
		_UpdateDutyCycle
		_UpdateFrequency
		_ValidateChannelId
		_ValidateDataRange
		_ValidateFrequency
		___lmul
 This function is called by:
		_MacExecuteCommands
 This function uses a non-reentrant model


 *************** function _ValidateFrequency *****************
 Defined at:
		line 1088 in file "mcc_generated_files/LoRaWAN/lorawan_eu.c"
 Parameters:    Size  Location     Type
  frequencyNew    4    4[BANK0 ] unsigned long 
 Auto vars:     Size  Location     Type
  result          1    8[BANK0 ] enum E17190
 Return value:  Size  Location     Type
                  1    wreg      enum E17190
 Registers used:
		wreg, status,2, status,0
 Tracked objects:
		On entry : 
		On exit  : 
		Unchanged: 
 Data sizes:     COMRAM   BANK0   BANK1   BANK2   BANK3   BANK4   BANK5   BANK6   BANK7   BANK8   BANK9  BANK10  BANK11  BANK12  BANK13
      Params:         0       4       0       0       0       0       0       0       0       0       0       0       0       0       0
      Locals:         0       1       0       0       0       0       0       0       0       0       0       0       0       0       0
      Temps:          0       0       0       0       0       0       0       0       0       0       0       0       0       0       0
      Totals:         0       5       0       0       0       0       0       0       0       0       0       0       0       0       0
Total ram usage:        5 bytes
 Hardware stack levels used:    1
 Hardware stack levels required when called:    7
 This function calls:
		Nothing
 This function is called by:
		_ExecuteNewChannel
		_ExecuteRxParamSetupReq
		_UpdateCfList
 This function uses a non-reentrant model


 *************** function _ValidateDataRange *****************
 Defined at:
		line 1110 in file "mcc_generated_files/LoRaWAN/lorawan_eu.c"
 Parameters:    Size  Location     Type
  dataRangeNew    1    wreg     unsigned char 
 Auto vars:     Size  Location     Type
  dataRangeNew    1    7[BANK0 ] unsigned char 
  dataRateMin     1    9[BANK0 ] unsigned char 
  dataRateMax     1    8[BANK0 ] unsigned char 
  result          1    6[BANK0 ] enum E17190
 Return value:  Size  Location     Type
                  1    wreg      enum E17190
 Registers used:
		wreg, status,2, status,0, cstack
 Tracked objects:
		On entry : 
		On exit  : 
		Unchanged: 
 Data sizes:     COMRAM   BANK0   BANK1   BANK2   BANK3   BANK4   BANK5   BANK6   BANK7   BANK8   BANK9  BANK10  BANK11  BANK12  BANK13
      Params:         0       0       0       0       0       0       0       0       0       0       0       0       0       0       0
      Locals:         0       4       0       0       0       0       0       0       0       0       0       0       0       0       0
      Temps:          0       0       0       0       0       0       0       0       0       0       0       0       0       0       0
      Totals:         0       4       0       0       0       0       0       0       0       0       0       0       0       0       0
Total ram usage:        4 bytes
 Hardware stack levels used:    1
 Hardware stack levels required when called:    8
 This function calls:
		_ValidateDataRate
 This function is called by:
		_ExecuteNewChannel
 This function uses a non-reentrant model


 *************** function _UpdateFrequency *****************
 Defined at:
		line 1154 in file "mcc_generated_files/LoRaWAN/lorawan_eu.c"
 Parameters:    Size  Location     Type
  channelId       1    wreg     unsigned char 
  frequencyNew    4    4[BANK0 ] unsigned long 
 Auto vars:     Size  Location     Type
  channelId       1    8[BANK0 ] unsigned char 
 Return value:  Size  Location     Type
                  1    wreg      void 
 Registers used:
		wreg, fsr2l, fsr2h, status,2, status,0, prodl, prodh
 Tracked objects:
		On entry : 
		On exit  : 
		Unchanged: 
 Data sizes:     COMRAM   BANK0   BANK1   BANK2   BANK3   BANK4   BANK5   BANK6   BANK7   BANK8   BANK9  BANK10  BANK11  BANK12  BANK13
      Params:         0       4       0       0       0       0       0       0       0       0       0       0       0       0       0
      Locals:         0       1       0       0       0       0       0       0       0       0       0       0       0       0       0
      Temps:          0       0       0       0       0       0       0       0       0       0       0       0       0       0       0
      Totals:         0       5       0       0       0       0       0       0       0       0       0       0       0       0       0
Total ram usage:        5 bytes
 Hardware stack levels used:    1
 Hardware stack levels required when called:    7
 This function calls:
		Nothing
 This function is called by:
		_ExecuteNewChannel
 This function uses a non-reentrant model


 *************** function _UpdateDutyCycle *****************
 Defined at:
		line 1160 in file "mcc_generated_files/LoRaWAN/lorawan_eu.c"
 Parameters:    Size  Location     Type
  channelId       1    wreg     unsigned char 
  dutyCycleNew    2    4[BANK0 ] unsigned int 
 Auto vars:     Size  Location     Type
  channelId       1    6[BANK0 ] unsigned char 
 Return value:  Size  Location     Type
                  1    wreg      void 
 Registers used:
		wreg, fsr2l, fsr2h, status,2, status,0, prodl, prodh
 Tracked objects:
		On entry : 
		On exit  : 
		Unchanged: 
 Data sizes:     COMRAM   BANK0   BANK1   BANK2   BANK3   BANK4   BANK5   BANK6   BANK7   BANK8   BANK9  BANK10  BANK11  BANK12  BANK13
      Params:         0       2       0       0       0       0       0       0       0       0       0       0       0       0       0
      Locals:         0       1       0       0       0       0       0       0       0       0       0       0       0       0       0
      Temps:          0       0       0       0       0       0       0       0       0       0       0       0       0       0       0
      Totals:         0       3       0       0       0       0       0       0       0       0       0       0       0       0       0
Total ram usage:        3 bytes
 Hardware stack levels used:    1
 Hardware stack levels required when called:    7
 This function calls:
		Nothing
 This function is called by:
		_ExecuteNewChannel
 This function uses a non-reentrant model


 *************** function _UpdateDataRange *****************
 Defined at:
		line 1009 in file "mcc_generated_files/LoRaWAN/lorawan_eu.c"
 Parameters:    Size  Location     Type
  channelId       1    wreg     unsigned char 
  dataRangeNew    1    4[BANK0 ] unsigned char 
 Auto vars:     Size  Location     Type
  channelId       1    6[BANK0 ] unsigned char 
  i               1    7[BANK0 ] unsigned char 
 Return value:  Size  Location     Type
                  1    wreg      void 
 Registers used:
		wreg, fsr2l, fsr2h, status,2, status,0, prodl, prodh
 Tracked objects:
		On entry : 
		On exit  : 
		Unchanged: 
 Data sizes:     COMRAM   BANK0   BANK1   BANK2   BANK3   BANK4   BANK5   BANK6   BANK7   BANK8   BANK9  BANK10  BANK11  BANK12  BANK13
      Params:         0       1       0       0       0       0       0       0       0       0       0       0       0       0       0
      Locals:         0       2       0       0       0       0       0       0       0       0       0       0       0       0       0
      Temps:          0       1       0       0       0       0       0       0       0       0       0       0       0       0       0
      Totals:         0       4       0       0       0       0       0       0       0       0       0       0       0       0       0
Total ram usage:        4 bytes
 Hardware stack levels used:    1
 Hardware stack levels required when called:    7
 This function calls:
		Nothing
 This function is called by:
		_ExecuteNewChannel
 This function uses a non-reentrant model


 *************** function _LORAWAN_SetChannelIdStatus *****************
 Defined at:
		line 282 in file "mcc_generated_files/LoRaWAN/lorawan_eu.c"
 Parameters:    Size  Location     Type
  channelId       1    wreg     unsigned char 
  statusNew       1    8[BANK0 ] unsigned char 
 Auto vars:     Size  Location     Type
  channelId       1   10[BANK0 ] unsigned char 
  result          1    0        enum E17190
 Return value:  Size  Location     Type
                  1    wreg      enum E17190
 Registers used:
		wreg, fsr2l, fsr2h, status,2, status,0, prodl, prodh, cstack
 Tracked objects:
		On entry : 
		On exit  : 
		Unchanged: 
 Data sizes:     COMRAM   BANK0   BANK1   BANK2   BANK3   BANK4   BANK5   BANK6   BANK7   BANK8   BANK9  BANK10  BANK11  BANK12  BANK13
      Params:         0       1       0       0       0       0       0       0       0       0       0       0       0       0       0
      Locals:         0       2       0       0       0       0       0       0       0       0       0       0       0       0       0
      Temps:          0       0       0       0       0       0       0       0       0       0       0       0       0       0       0
      Totals:         0       3       0       0       0       0       0       0       0       0       0       0       0       0       0
Total ram usage:        3 bytes
 Hardware stack levels used:    1
 Hardware stack levels required when called:    8
 This function calls:
		_UpdateChannelIdStatus
		_ValidateChannelId
 This function is called by:
		_ExecuteNewChannel
		_UpdateCfList
 This function uses a non-reentrant model


 *************** function _ValidateChannelId *****************
 Defined at:
		line 1125 in file "mcc_generated_files/LoRaWAN/lorawan_eu.c"
 Parameters:    Size  Location     Type
  channelId       1    wreg     unsigned char 
  allowedForDe    1    4[BANK0 ] unsigned char 
 Auto vars:     Size  Location     Type
  channelId       1    6[BANK0 ] unsigned char 
  result          1    5[BANK0 ] enum E17190
 Return value:  Size  Location     Type
                  1    wreg      enum E17190
 Registers used:
		wreg, status,2, status,0
 Tracked objects:
		On entry : 
		On exit  : 
		Unchanged: 
 Data sizes:     COMRAM   BANK0   BANK1   BANK2   BANK3   BANK4   BANK5   BANK6   BANK7   BANK8   BANK9  BANK10  BANK11  BANK12  BANK13
      Params:         0       1       0       0       0       0       0       0       0       0       0       0       0       0       0
      Locals:         0       2       0       0       0       0       0       0       0       0       0       0       0       0       0
      Temps:          0       0       0       0       0       0       0       0       0       0       0       0       0       0       0
      Totals:         0       3       0       0       0       0       0       0       0       0       0       0       0       0       0
Total ram usage:        3 bytes
 Hardware stack levels used:    1
 Hardware stack levels required when called:    7
 This function calls:
		Nothing
 This function is called by:
		_LORAWAN_SetChannelIdStatus
		_ExecuteNewChannel
 This function uses a non-reentrant model


 *************** function _ExecuteLinkCheck *****************
 Defined at:
		line 1652 in file "mcc_generated_files/LoRaWAN/lorawan.c"
 Parameters:    Size  Location     Type
  ptr             2    4[BANK0 ] PTR unsigned char 
		 -> LORAWAN_RxDone@hdr(2), radioBuffer(271), 
 Auto vars:     Size  Location     Type
		None
 Return value:  Size  Location     Type
                  2    4[BANK0 ] PTR unsigned char 
 Registers used:
		wreg, fsr2l, fsr2h, status,2, status,0
 Tracked objects:
		On entry : 
		On exit  : 
		Unchanged: 
 Data sizes:     COMRAM   BANK0   BANK1   BANK2   BANK3   BANK4   BANK5   BANK6   BANK7   BANK8   BANK9  BANK10  BANK11  BANK12  BANK13
      Params:         0       2       0       0       0       0       0       0       0       0       0       0       0       0       0
      Locals:         0       0       0       0       0       0       0       0       0       0       0       0       0       0       0
      Temps:          0       0       0       0       0       0       0       0       0       0       0       0       0       0       0
      Totals:         0       2       0       0       0       0       0       0       0       0       0       0       0       0       0
Total ram usage:        2 bytes
 Hardware stack levels used:    1
 Hardware stack levels required when called:    7
 This function calls:
		Nothing
 This function is called by:
		_MacExecuteCommands
 This function uses a non-reentrant model


 *************** function _ExecuteLinkAdr *****************
 Defined at:
		line 613 in file "mcc_generated_files/LoRaWAN/lorawan_eu.c"
 Parameters:    Size  Location     Type
  ptr             2   17[BANK0 ] PTR unsigned char 
		 -> LORAWAN_RxDone@hdr(2), radioBuffer(271), 
 Auto vars:     Size  Location     Type
  redundancy      2   23[BANK0 ] PTR struct .
		 -> LORAWAN_RxDone@hdr(2), radioBuffer(271), 
  channelMask     2   20[BANK0 ] unsigned int 
  dataRate        1   25[BANK0 ] unsigned char 
  txPower         1   22[BANK0 ] unsigned char 
 Return value:  Size  Location     Type
                  2   17[BANK0 ] PTR unsigned char 
 Registers used:
		wreg, fsr2l, fsr2h, status,2, status,0, prodl, prodh, cstack
 Tracked objects:
		On entry : 
		On exit  : 
		Unchanged: 
 Data sizes:     COMRAM   BANK0   BANK1   BANK2   BANK3   BANK4   BANK5   BANK6   BANK7   BANK8   BANK9  BANK10  BANK11  BANK12  BANK13
      Params:         0       2       0       0       0       0       0       0       0       0       0       0       0       0       0
      Locals:         0       6       0       0       0       0       0       0       0       0       0       0       0       0       0
      Temps:          0       1       0       0       0       0       0       0       0       0       0       0       0       0       0
      Totals:         0       9       0       0       0       0       0       0       0       0       0       0       0       0       0
Total ram usage:        9 bytes
 Hardware stack levels used:    1
 Hardware stack levels required when called:   10
 This function calls:
		_EnableChannels
		_UpdateCurrentDataRate
		_UpdateTxPower
		_ValidateChannelMask
		_ValidateChannelMaskCntl
		_ValidateDataRate
		_ValidateTxPower
 This function is called by:
		_MacExecuteCommands
 This function uses a non-reentrant model


 *************** function _ValidateTxPower *****************
 Defined at:
		line 582 in file "mcc_generated_files/LoRaWAN/lorawan_eu.c"
 Parameters:    Size  Location     Type
  txPowerNew      1    wreg     unsigned char 
 Auto vars:     Size  Location     Type
  txPowerNew      1    5[BANK0 ] unsigned char 
  result          1    4[BANK0 ] enum E17190
 Return value:  Size  Location     Type
                  1    wreg      enum E17190
 Registers used:
		wreg, status,2, status,0
 Tracked objects:
		On entry : 
		On exit  : 
		Unchanged: 
 Data sizes:     COMRAM   BANK0   BANK1   BANK2   BANK3   BANK4   BANK5   BANK6   BANK7   BANK8   BANK9  BANK10  BANK11  BANK12  BANK13
      Params:         0       0       0       0       0       0       0       0       0       0       0       0       0       0       0
      Locals:         0       2       0       0       0       0       0       0       0       0       0       0       0       0       0
      Temps:          0       0       0       0       0       0       0       0       0       0       0       0       0       0       0
      Totals:         0       2       0       0       0       0       0       0       0       0       0       0       0       0       0
Total ram usage:        2 bytes
 Hardware stack levels used:    1
 Hardware stack levels required when called:    7
 This function calls:
		Nothing
 This function is called by:
		_ExecuteLinkAdr
 This function uses a non-reentrant model


 *************** function _ValidateDataRate *****************
 Defined at:
		line 570 in file "mcc_generated_files/LoRaWAN/lorawan_eu.c"
 Parameters:    Size  Location     Type
  dataRate        1    wreg     unsigned char 
 Auto vars:     Size  Location     Type
  dataRate        1    4[BANK0 ] unsigned char 
  result          1    5[BANK0 ] enum E17190
 Return value:  Size  Location     Type
                  1    wreg      enum E17190
 Registers used:
		wreg, status,2, status,0
 Tracked objects:
		On entry : 
		On exit  : 
		Unchanged: 
 Data sizes:     COMRAM   BANK0   BANK1   BANK2   BANK3   BANK4   BANK5   BANK6   BANK7   BANK8   BANK9  BANK10  BANK11  BANK12  BANK13
      Params:         0       0       0       0       0       0       0       0       0       0       0       0       0       0       0
      Locals:         0       2       0       0       0       0       0       0       0       0       0       0       0       0       0
      Temps:          0       0       0       0       0       0       0       0       0       0       0       0       0       0       0
      Totals:         0       2       0       0       0       0       0       0       0       0       0       0       0       0       0
Total ram usage:        2 bytes
 Hardware stack levels used:    1
 Hardware stack levels required when called:    7
 This function calls:
		Nothing
 This function is called by:
		_ExecuteLinkAdr
		_ExecuteRxParamSetupReq
		_ValidateDataRange
 This function uses a non-reentrant model


 *************** function _ValidateChannelMaskCntl *****************
 Defined at:
		line 1137 in file "mcc_generated_files/LoRaWAN/lorawan_eu.c"
 Parameters:    Size  Location     Type
  channelMaskC    1    wreg     unsigned char 
 Auto vars:     Size  Location     Type
  channelMaskC    1    5[BANK0 ] unsigned char 
  result          1    4[BANK0 ] enum E17190
 Return value:  Size  Location     Type
                  1    wreg      enum E17190
 Registers used:
		wreg, status,2, status,0
 Tracked objects:
		On entry : 
		On exit  : 
		Unchanged: 
 Data sizes:     COMRAM   BANK0   BANK1   BANK2   BANK3   BANK4   BANK5   BANK6   BANK7   BANK8   BANK9  BANK10  BANK11  BANK12  BANK13
      Params:         0       0       0       0       0       0       0       0       0       0       0       0       0       0       0
      Locals:         0       2       0       0       0       0       0       0       0       0       0       0       0       0       0
      Temps:          0       0       0       0       0       0       0       0       0       0       0       0       0       0       0
      Totals:         0       2       0       0       0       0       0       0       0       0       0       0       0       0       0
Total ram usage:        2 bytes
 Hardware stack levels used:    1
 Hardware stack levels required when called:    7
 This function calls:
		Nothing
 This function is called by:
		_ExecuteLinkAdr
 This function uses a non-reentrant model


 *************** function _ValidateChannelMask *****************
 Defined at:
		line 1166 in file "mcc_generated_files/LoRaWAN/lorawan_eu.c"
 Parameters:    Size  Location     Type
  channelMask     2    4[BANK0 ] unsigned int 
 Auto vars:     Size  Location     Type
  i               1    6[BANK0 ] unsigned char 
 Return value:  Size  Location     Type
                  1    wreg      enum E17190
 Registers used:
		wreg, fsr2l, fsr2h, status,2, status,0, prodl, prodh
 Tracked objects:
		On entry : 
		On exit  : 
		Unchanged: 
 Data sizes:     COMRAM   BANK0   BANK1   BANK2   BANK3   BANK4   BANK5   BANK6   BANK7   BANK8   BANK9  BANK10  BANK11  BANK12  BANK13
      Params:         0       2       0       0       0       0       0       0       0       0       0       0       0       0       0
      Locals:         0       1       0       0       0       0       0       0       0       0       0       0       0       0       0
      Temps:          0       0       0       0       0       0       0       0       0       0       0       0       0       0       0
      Totals:         0       3       0       0       0       0       0       0       0       0       0       0       0       0       0
Total ram usage:        3 bytes
 Hardware stack levels used:    1
 Hardware stack levels required when called:    7
 This function calls:
		Nothing
 This function is called by:
		_ExecuteLinkAdr
 This function uses a non-reentrant model


 *************** function _UpdateTxPower *****************
 Defined at:
		line 1029 in file "mcc_generated_files/LoRaWAN/lorawan.c"
 Parameters:    Size  Location     Type
  txPowerNew      1    wreg     unsigned char 
 Auto vars:     Size  Location     Type
  txPowerNew      1    4[BANK0 ] unsigned char 
 Return value:  Size  Location     Type
                  1    wreg      void 
 Registers used:
		wreg
 Tracked objects:
		On entry : 
		On exit  : 
		Unchanged: 
 Data sizes:     COMRAM   BANK0   BANK1   BANK2   BANK3   BANK4   BANK5   BANK6   BANK7   BANK8   BANK9  BANK10  BANK11  BANK12  BANK13
      Params:         0       0       0       0       0       0       0       0       0       0       0       0       0       0       0
      Locals:         0       1       0       0       0       0       0       0       0       0       0       0       0       0       0
      Temps:          0       0       0       0       0       0       0       0       0       0       0       0       0       0       0
      Totals:         0       1       0       0       0       0       0       0       0       0       0       0       0       0       0
Total ram usage:        1 bytes
 Hardware stack levels used:    1
 Hardware stack levels required when called:    7
 This function calls:
		Nothing
 This function is called by:
		_ExecuteLinkAdr
 This function uses a non-reentrant model


 *************** function _UpdateCurrentDataRate *****************
 Defined at:
		line 1024 in file "mcc_generated_files/LoRaWAN/lorawan.c"
 Parameters:    Size  Location     Type
  valueNew        1    wreg     unsigned char 
 Auto vars:     Size  Location     Type
  valueNew        1    4[BANK0 ] unsigned char 
 Return value:  Size  Location     Type
                  1    wreg      void 
 Registers used:
		wreg
 Tracked objects:
		On entry : 
		On exit  : 
		Unchanged: 
 Data sizes:     COMRAM   BANK0   BANK1   BANK2   BANK3   BANK4   BANK5   BANK6   BANK7   BANK8   BANK9  BANK10  BANK11  BANK12  BANK13
      Params:         0       0       0       0       0       0       0       0       0       0       0       0       0       0       0
      Locals:         0       1       0       0       0       0       0       0       0       0       0       0       0       0       0
      Temps:          0       0       0       0       0       0       0       0       0       0       0       0       0       0       0
      Totals:         0       1       0       0       0       0       0       0       0       0       0       0       0       0       0
Total ram usage:        1 bytes
 Hardware stack levels used:    1
 Hardware stack levels required when called:    7
 This function calls:
		Nothing
 This function is called by:
		_ExecuteLinkAdr
 This function uses a non-reentrant model


 *************** function _EnableChannels *****************
 Defined at:
		line 1149 in file "mcc_generated_files/LoRaWAN/lorawan_eu.c"
 Parameters:    Size  Location     Type
  channelMask     2   14[BANK0 ] unsigned int 
  channelMaskC    1   16[BANK0 ] unsigned char 
 Auto vars:     Size  Location     Type
		None
 Return value:  Size  Location     Type
                  1    wreg      void 
 Registers used:
		wreg, fsr2l, fsr2h, status,2, status,0, prodl, prodh, cstack
 Tracked objects:
		On entry : 
		On exit  : 
		Unchanged: 
 Data sizes:     COMRAM   BANK0   BANK1   BANK2   BANK3   BANK4   BANK5   BANK6   BANK7   BANK8   BANK9  BANK10  BANK11  BANK12  BANK13
      Params:         0       3       0       0       0       0       0       0       0       0       0       0       0       0       0
      Locals:         0       0       0       0       0       0       0       0       0       0       0       0       0       0       0
      Temps:          0       0       0       0       0       0       0       0       0       0       0       0       0       0       0
      Totals:         0       3       0       0       0       0       0       0       0       0       0       0       0       0       0
Total ram usage:        3 bytes
 Hardware stack levels used:    1
 Hardware stack levels required when called:    9
 This function calls:
		_EnableChannels1
 This function is called by:
		_ExecuteLinkAdr
 This function uses a non-reentrant model


 *************** function _EnableChannels1 *****************
 Defined at:
		line 1193 in file "mcc_generated_files/LoRaWAN/lorawan_eu.c"
 Parameters:    Size  Location     Type
  channelMask     2    8[BANK0 ] unsigned int 
  channelMaskC    1   10[BANK0 ] unsigned char 
  channelIndex    1   11[BANK0 ] unsigned char 
  channelIndex    1   12[BANK0 ] unsigned char 
 Auto vars:     Size  Location     Type
  i               1   13[BANK0 ] unsigned char 
 Return value:  Size  Location     Type
                  1    wreg      void 
 Registers used:
		wreg, fsr2l, fsr2h, status,2, status,0, prodl, prodh, cstack
 Tracked objects:
		On entry : 
		On exit  : 
		Unchanged: 
 Data sizes:     COMRAM   BANK0   BANK1   BANK2   BANK3   BANK4   BANK5   BANK6   BANK7   BANK8   BANK9  BANK10  BANK11  BANK12  BANK13
      Params:         0       5       0       0       0       0       0       0       0       0       0       0       0       0       0
      Locals:         0       1       0       0       0       0       0       0       0       0       0       0       0       0       0
      Temps:          0       0       0       0       0       0       0       0       0       0       0       0       0       0       0
      Totals:         0       6       0       0       0       0       0       0       0       0       0       0       0       0       0
Total ram usage:        6 bytes
 Hardware stack levels used:    1
 Hardware stack levels required when called:    8
 This function calls:
		_UpdateChannelIdStatus
 This function is called by:
		_EnableChannels
 This function uses a non-reentrant model


 *************** function _UpdateChannelIdStatus *****************
 Defined at:
		line 1042 in file "mcc_generated_files/LoRaWAN/lorawan_eu.c"
 Parameters:    Size  Location     Type
  channelId       1    wreg     unsigned char 
  statusNew       1    4[BANK0 ] unsigned char 
 Auto vars:     Size  Location     Type
  channelId       1    6[BANK0 ] unsigned char 
  i               1    7[BANK0 ] unsigned char 
 Return value:  Size  Location     Type
                  1    wreg      void 
 Registers used:
		wreg, fsr2l, fsr2h, status,2, status,0, prodl, prodh
 Tracked objects:
		On entry : 
		On exit  : 
		Unchanged: 
 Data sizes:     COMRAM   BANK0   BANK1   BANK2   BANK3   BANK4   BANK5   BANK6   BANK7   BANK8   BANK9  BANK10  BANK11  BANK12  BANK13
      Params:         0       1       0       0       0       0       0       0       0       0       0       0       0       0       0
      Locals:         0       2       0       0       0       0       0       0       0       0       0       0       0       0       0
      Temps:          0       1       0       0       0       0       0       0       0       0       0       0       0       0       0
      Totals:         0       4       0       0       0       0       0       0       0       0       0       0       0       0       0
Total ram usage:        4 bytes
 Hardware stack levels used:    1
 Hardware stack levels required when called:    7
 This function calls:
		Nothing
 This function is called by:
		_LORAWAN_SetChannelIdStatus
		_ExecuteNewChannel
		_EnableChannels1
 This function uses a non-reentrant model


 *************** function _ExecuteDutyCycle *****************
 Defined at:
		line 594 in file "mcc_generated_files/LoRaWAN/lorawan_eu.c"
 Parameters:    Size  Location     Type
  ptr             2    4[BANK0 ] PTR unsigned char 
		 -> LORAWAN_RxDone@hdr(2), radioBuffer(271), 
 Auto vars:     Size  Location     Type
  maxDCycle       1    9[BANK0 ] unsigned char 
 Return value:  Size  Location     Type
                  2    4[BANK0 ] PTR unsigned char 
 Registers used:
		wreg, fsr2l, fsr2h, status,2, status,0
 Tracked objects:
		On entry : 
		On exit  : 
		Unchanged: 
 Data sizes:     COMRAM   BANK0   BANK1   BANK2   BANK3   BANK4   BANK5   BANK6   BANK7   BANK8   BANK9  BANK10  BANK11  BANK12  BANK13
      Params:         0       2       0       0       0       0       0       0       0       0       0       0       0       0       0
      Locals:         0       1       0       0       0       0       0       0       0       0       0       0       0       0       0
      Temps:          0       3       0       0       0       0       0       0       0       0       0       0       0       0       0
      Totals:         0       6       0       0       0       0       0       0       0       0       0       0       0       0       0
Total ram usage:        6 bytes
 Hardware stack levels used:    1
 Hardware stack levels required when called:    7
 This function calls:
		Nothing
 This function is called by:
		_MacExecuteCommands
 This function uses a non-reentrant model


 *************** function _ExecuteDevStatus *****************
 Defined at:
		line 672 in file "mcc_generated_files/LoRaWAN/lorawan_eu.c"
 Parameters:    Size  Location     Type
  ptr             2    4[BANK0 ] PTR unsigned char 
		 -> LORAWAN_RxDone@hdr(2), radioBuffer(271), 
 Auto vars:     Size  Location     Type
		None
 Return value:  Size  Location     Type
                  2    4[BANK0 ] PTR unsigned char 
 Registers used:
		wreg, status,2, status,0
 Tracked objects:
		On entry : 
		On exit  : 
		Unchanged: 
 Data sizes:     COMRAM   BANK0   BANK1   BANK2   BANK3   BANK4   BANK5   BANK6   BANK7   BANK8   BANK9  BANK10  BANK11  BANK12  BANK13
      Params:         0       2       0       0       0       0       0       0       0       0       0       0       0       0       0
      Locals:         0       0       0       0       0       0       0       0       0       0       0       0       0       0       0
      Temps:          0       0       0       0       0       0       0       0       0       0       0       0       0       0       0
      Totals:         0       2       0       0       0       0       0       0       0       0       0       0       0       0       0
Total ram usage:        2 bytes
 Hardware stack levels used:    1
 Hardware stack levels required when called:    7
 This function calls:
		Nothing
 This function is called by:
		_MacExecuteCommands
 This function uses a non-reentrant model


 *************** function _LORAWAN_Send *****************
 Defined at:
		line 185 in file "mcc_generated_files/LoRaWAN/lorawan.c"
 Parameters:    Size  Location     Type
  confirmed       1    wreg     enum E17158
  port            1  129[BANK0 ] unsigned char 
  buffer          2  130[BANK0 ] PTR void 
		 -> payload(2), NULL(0), 
  bufferLength    1  132[BANK0 ] unsigned char 
 Auto vars:     Size  Location     Type
  confirmed       1  135[BANK0 ] enum E17158
  result          1  134[BANK0 ] enum E17131
 Return value:  Size  Location     Type
                  1    wreg      enum E17131
 Registers used:
		wreg, fsr0l, fsr0h, fsr2l, fsr2h, status,2, status,0, tblptrl, tblptrh, tblptru, prodl, prodh, cstack
 Tracked objects:
		On entry : 
		On exit  : 
		Unchanged: 
 Data sizes:     COMRAM   BANK0   BANK1   BANK2   BANK3   BANK4   BANK5   BANK6   BANK7   BANK8   BANK9  BANK10  BANK11  BANK12  BANK13
      Params:         0       4       0       0       0       0       0       0       0       0       0       0       0       0       0
      Locals:         0       2       0       0       0       0       0       0       0       0       0       0       0       0       0
      Temps:          0       1       0       0       0       0       0       0       0       0       0       0       0       0       0
      Totals:         0       7       0       0       0       0       0       0       0       0       0       0       0       0       0
Total ram usage:        7 bytes
 Hardware stack levels used:    1
 Hardware stack levels required when called:   13
 This function calls:
		_AssemblePacket
		_LORAWAN_GetMaxPayloadSize
		_RADIO_ReceiveStop
		_RADIO_Transmit
		_SelectChannelForTransmission
 This function is called by:
		_AutomaticReplyCallback
		_LORAWAN_RxDone
		_sendPacket
 This function uses a non-reentrant model


 *************** function _LORAWAN_GetMaxPayloadSize *****************
 Defined at:
		line 1556 in file "mcc_generated_files/LoRaWAN/lorawan.c"
 Parameters:    Size  Location     Type
		None
 Auto vars:     Size  Location     Type
  result          1   14[BANK0 ] unsigned char 
  macCommandsL    1   13[BANK0 ] unsigned char 
 Return value:  Size  Location     Type
                  1    wreg      unsigned char 
 Registers used:
		wreg, fsr2l, fsr2h, status,2, status,0, tblptrl, tblptrh, tblptru, prodl, prodh, cstack
 Tracked objects:
		On entry : 
		On exit  : 
		Unchanged: 
 Data sizes:     COMRAM   BANK0   BANK1   BANK2   BANK3   BANK4   BANK5   BANK6   BANK7   BANK8   BANK9  BANK10  BANK11  BANK12  BANK13
      Params:         0       0       0       0       0       0       0       0       0       0       0       0       0       0       0
      Locals:         0       2       0       0       0       0       0       0       0       0       0       0       0       0       0
      Temps:          0       1       0       0       0       0       0       0       0       0       0       0       0       0       0
      Totals:         0       3       0       0       0       0       0       0       0       0       0       0       0       0       0
Total ram usage:        3 bytes
 Hardware stack levels used:    1
 Hardware stack levels required when called:    8
 This function calls:
		_CountfOptsLength
 This function is called by:
		_LORAWAN_Send
		_AckRetransmissionCallback
 This function uses a non-reentrant model


 *************** function _AssemblePacket *****************
 Defined at:
		line 1672 in file "mcc_generated_files/LoRaWAN/lorawan.c"
 Parameters:    Size  Location     Type
  confirmed       1    wreg     unsigned char 
  port            1  102[BANK1 ] unsigned char 
  buffer          2  103[BANK1 ] PTR unsigned char 
		 -> payload(2), NULL(0), 
  bufferLength    2  105[BANK1 ] unsigned int 
 Auto vars:     Size  Location     Type
  confirmed       1  124[BANK0 ] unsigned char 
  bufferIndex     1  128[BANK0 ] unsigned char 
  macCmdIdx       1  127[BANK0 ] unsigned char 
  fCtrl           1  126[BANK0 ] struct .
  mhdr            1  125[BANK0 ] struct .
 Return value:  Size  Location     Type
                  1    wreg      void 
 Registers used:
		wreg, fsr0l, fsr0h, fsr2l, fsr2h, status,2, status,0, tblptrl, tblptrh, tblptru, prodl, prodh, cstack
 Tracked objects:
		On entry : 
		On exit  : 
		Unchanged: 
 Data sizes:     COMRAM   BANK0   BANK1   BANK2   BANK3   BANK4   BANK5   BANK6   BANK7   BANK8   BANK9  BANK10  BANK11  BANK12  BANK13
      Params:         0       0       5       0       0       0       0       0       0       0       0       0       0       0       0
      Locals:         0       5       0       0       0       0       0       0       0       0       0       0       0       0       0
      Temps:          0       2       0       0       0       0       0       0       0       0       0       0       0       0       0
      Totals:         0       7       5       0       0       0       0       0       0       0       0       0       0       0       0
Total ram usage:       12 bytes
 Hardware stack levels used:    1
 Hardware stack levels required when called:   12
 This function calls:
		_AESCmac
		_AssembleEncryptionBlock
		_CountfOptsLength
		_EncryptFRMPayload
		_FindSmallestDataRate
		_IncludeMacCommandsResponse
		_memcpy
		_memset
 This function is called by:
		_LORAWAN_Send
 This function uses a non-reentrant model


 *************** function _IncludeMacCommandsResponse *****************
 Defined at:
		line 1845 in file "mcc_generated_files/LoRaWAN/lorawan.c"
 Parameters:    Size  Location     Type
  macBuffer       2    4[BANK0 ] PTR unsigned char 
		 -> macBuffer(271), radioBuffer(271), 
  pBufferIndex    1    6[BANK0 ] PTR unsigned char 
		 -> AssemblePacket@macCmdIdx(1), AssemblePacket@bufferIndex(1), 
  bIncludeInFo    1    7[BANK0 ] unsigned char 
 Auto vars:     Size  Location     Type
  bufferIndex     1   15[BANK0 ] unsigned char 
  i               1   14[BANK0 ] unsigned char 
 Return value:  Size  Location     Type
                  1    wreg      void 
 Registers used:
		wreg, fsr0l, fsr0h, fsr2l, fsr2h, status,2, status,0, tblptrl, tblptrh, tblptru, prodl, prodh, cstack
 Tracked objects:
		On entry : 
		On exit  : 
		Unchanged: 
 Data sizes:     COMRAM   BANK0   BANK1   BANK2   BANK3   BANK4   BANK5   BANK6   BANK7   BANK8   BANK9  BANK10  BANK11  BANK12  BANK13
      Params:         0       4       0       0       0       0       0       0       0       0       0       0       0       0       0
      Locals:         0       2       0       0       0       0       0       0       0       0       0       0       0       0       0
      Temps:          0       6       0       0       0       0       0       0       0       0       0       0       0       0       0
      Totals:         0      12       0       0       0       0       0       0       0       0       0       0       0       0       0
Total ram usage:       12 bytes
 Hardware stack levels used:    1
 Hardware stack levels required when called:    8
 This function calls:
		_RADIO_GetPacketSnr
 This function is called by:
		_AssemblePacket
 This function uses a non-reentrant model


 *************** function _RADIO_GetPacketSnr *****************
 Defined at:
		line 1429 in file "mcc_generated_files/LoRaWAN/radio_driver_SX1276.c"
 Parameters:    Size  Location     Type
		None
 Auto vars:     Size  Location     Type
		None
 Return value:  Size  Location     Type
                  1    wreg      char 
 Registers used:
		wreg, status,2
 Tracked objects:
		On entry : 
		On exit  : 
		Unchanged: 
 Data sizes:     COMRAM   BANK0   BANK1   BANK2   BANK3   BANK4   BANK5   BANK6   BANK7   BANK8   BANK9  BANK10  BANK11  BANK12  BANK13
      Params:         0       0       0       0       0       0       0       0       0       0       0       0       0       0       0
      Locals:         0       0       0       0       0       0       0       0       0       0       0       0       0       0       0
      Temps:          0       0       0       0       0       0       0       0       0       0       0       0       0       0       0
      Totals:         0       0       0       0       0       0       0       0       0       0       0       0       0       0       0
Total ram usage:        0 bytes
 Hardware stack levels used:    1
 Hardware stack levels required when called:    7
 This function calls:
		Nothing
 This function is called by:
		_IncludeMacCommandsResponse
 This function uses a non-reentrant model


 *************** function _FindSmallestDataRate *****************
 Defined at:
		line 1963 in file "mcc_generated_files/LoRaWAN/lorawan.c"
 Parameters:    Size  Location     Type
		None
 Auto vars:     Size  Location     Type
  dataRate        1    7[BANK0 ] unsigned char 
  i               1    6[BANK0 ] unsigned char 
  found           1    5[BANK0 ] unsigned char 
 Return value:  Size  Location     Type
                  1    wreg      unsigned char 
 Registers used:
		wreg, fsr2l, fsr2h, status,2, status,0, prodl, prodh
 Tracked objects:
		On entry : 
		On exit  : 
		Unchanged: 
 Data sizes:     COMRAM   BANK0   BANK1   BANK2   BANK3   BANK4   BANK5   BANK6   BANK7   BANK8   BANK9  BANK10  BANK11  BANK12  BANK13
      Params:         0       0       0       0       0       0       0       0       0       0       0       0       0       0       0
      Locals:         0       3       0       0       0       0       0       0       0       0       0       0       0       0       0
      Temps:          0       1       0       0       0       0       0       0       0       0       0       0       0       0       0
      Totals:         0       4       0       0       0       0       0       0       0       0       0       0       0       0       0
Total ram usage:        4 bytes
 Hardware stack levels used:    1
 Hardware stack levels required when called:    7
 This function calls:
		Nothing
 This function is called by:
		_AckRetransmissionCallback
		_AssemblePacket
 This function uses a non-reentrant model


 *************** function _EncryptFRMPayload *****************
 Defined at:
		line 2205 in file "mcc_generated_files/LoRaWAN/lorawan.c"
 Parameters:    Size  Location     Type
  buffer          2   68[BANK0 ] PTR unsigned char 
		 -> payload(2), LORAWAN_RxDone@hdr(2), radioBuffer(271), NULL(0), 
  bufferLength    1   70[BANK0 ] unsigned char 
  dir             1   71[BANK0 ] unsigned char 
  frameCounter    4   72[BANK0 ] unsigned long 
  key             2   76[BANK0 ] PTR unsigned char 
		 -> loRa.activationParameters(105), loRa(245), 
  macBufferInd    1   78[BANK0 ] unsigned char 
  bufferToBeEn    2   79[BANK0 ] PTR unsigned char 
		 -> macBuffer(271), radioBuffer(271), 
  multicastSta    1   81[BANK0 ] unsigned char 
 Auto vars:     Size  Location     Type
  j               1   89[BANK0 ] unsigned char 
  i               1   88[BANK0 ] unsigned char 
  k               1   87[BANK0 ] unsigned char 
 Return value:  Size  Location     Type
                  1    wreg      void 
 Registers used:
		wreg, fsr0l, fsr0h, fsr2l, fsr2h, status,2, status,0, tblptrl, tblptrh, tblptru, prodl, prodh, cstack
 Tracked objects:
		On entry : 
		On exit  : 
		Unchanged: 
 Data sizes:     COMRAM   BANK0   BANK1   BANK2   BANK3   BANK4   BANK5   BANK6   BANK7   BANK8   BANK9  BANK10  BANK11  BANK12  BANK13
      Params:         0      14       0       0       0       0       0       0       0       0       0       0       0       0       0
      Locals:         0       3       0       0       0       0       0       0       0       0       0       0       0       0       0
      Temps:          0       5       0       0       0       0       0       0       0       0       0       0       0       0       0
      Totals:         0      22       0       0       0       0       0       0       0       0       0       0       0       0       0
Total ram usage:       22 bytes
 Hardware stack levels used:    1
 Hardware stack levels required when called:   10
 This function calls:
		_AESEncodeLoRa
		_AssembleEncryptionBlock
 This function is called by:
		_LORAWAN_RxDone
		_AssemblePacket
 This function uses a non-reentrant model


 *************** function _AssembleEncryptionBlock *****************
 Defined at:
		line 2156 in file "mcc_generated_files/LoRaWAN/lorawan.c"
 Parameters:    Size  Location     Type
  dir             1    wreg     unsigned char 
  frameCounter    4   14[BANK0 ] unsigned long 
  blockId         1   18[BANK0 ] unsigned char 
  firstByte       1   19[BANK0 ] unsigned char 
  multicastSta    1   20[BANK0 ] unsigned char 
 Auto vars:     Size  Location     Type
  dir             1   21[BANK0 ] unsigned char 
  bufferIndex     1   22[BANK0 ] unsigned char 
 Return value:  Size  Location     Type
                  1    wreg      void 
 Registers used:
		wreg, fsr0l, fsr0h, fsr2l, fsr2h, status,2, status,0, tblptrl, tblptrh, tblptru, cstack
 Tracked objects:
		On entry : 
		On exit  : 
		Unchanged: 
 Data sizes:     COMRAM   BANK0   BANK1   BANK2   BANK3   BANK4   BANK5   BANK6   BANK7   BANK8   BANK9  BANK10  BANK11  BANK12  BANK13
      Params:         0       7       0       0       0       0       0       0       0       0       0       0       0       0       0
      Locals:         0       2       0       0       0       0       0       0       0       0       0       0       0       0       0
      Temps:          0       0       0       0       0       0       0       0       0       0       0       0       0       0       0
      Totals:         0       9       0       0       0       0       0       0       0       0       0       0       0       0       0
Total ram usage:        9 bytes
 Hardware stack levels used:    1
 Hardware stack levels required when called:    8
 This function calls:
		_memcpy
		_memset
 This function is called by:
		_LORAWAN_RxDone
		_AssemblePacket
		_EncryptFRMPayload
 This function uses a non-reentrant model


 *************** function _CountfOptsLength *****************
 Defined at:
		line 2134 in file "mcc_generated_files/LoRaWAN/lorawan.c"
 Parameters:    Size  Location     Type
		None
 Auto vars:     Size  Location     Type
  i               1   11[BANK0 ] unsigned char 
  macCommandLe    1   10[BANK0 ] unsigned char 
 Return value:  Size  Location     Type
                  1    wreg      unsigned char 
 Registers used:
		wreg, fsr2l, fsr2h, status,2, status,0, tblptrl, tblptrh, tblptru, prodl, prodh
 Tracked objects:
		On entry : 
		On exit  : 
		Unchanged: 
 Data sizes:     COMRAM   BANK0   BANK1   BANK2   BANK3   BANK4   BANK5   BANK6   BANK7   BANK8   BANK9  BANK10  BANK11  BANK12  BANK13
      Params:         0       0       0       0       0       0       0       0       0       0       0       0       0       0       0
      Locals:         0       2       0       0       0       0       0       0       0       0       0       0       0       0       0
      Temps:          0       6       0       0       0       0       0       0       0       0       0       0       0       0       0
      Totals:         0       8       0       0       0       0       0       0       0       0       0       0       0       0       0
Total ram usage:        8 bytes
 Hardware stack levels used:    1
 Hardware stack levels required when called:    7
 This function calls:
		Nothing
 This function is called by:
		_LORAWAN_GetMaxPayloadSize
		_AssemblePacket
 This function uses a non-reentrant model


 *************** function _ExtractMic *****************
 Defined at:
		line 2187 in file "mcc_generated_files/LoRaWAN/lorawan.c"
 Parameters:    Size  Location     Type
  buffer          2   14[BANK0 ] PTR unsigned char 
		 -> LORAWAN_RxDone@hdr(2), radioBuffer(271), 
  bufferLength    1   16[BANK0 ] unsigned char 
 Auto vars:     Size  Location     Type
  mic             4   20[BANK0 ] unsigned long 
 Return value:  Size  Location     Type
                  4   14[BANK0 ] unsigned long 
 Registers used:
		wreg, fsr0l, fsr0h, fsr2l, fsr2h, status,2, status,0, tblptrl, tblptrh, tblptru, cstack
 Tracked objects:
		On entry : 
		On exit  : 
		Unchanged: 
 Data sizes:     COMRAM   BANK0   BANK1   BANK2   BANK3   BANK4   BANK5   BANK6   BANK7   BANK8   BANK9  BANK10  BANK11  BANK12  BANK13
      Params:         0       4       0       0       0       0       0       0       0       0       0       0       0       0       0
      Locals:         0       4       0       0       0       0       0       0       0       0       0       0       0       0       0
      Temps:          0       2       0       0       0       0       0       0       0       0       0       0       0       0       0
      Totals:         0      10       0       0       0       0       0       0       0       0       0       0       0       0       0
Total ram usage:       10 bytes
 Hardware stack levels used:    1
 Hardware stack levels required when called:    8
 This function calls:
		_memcpy
 This function is called by:
		_LORAWAN_RxDone
 This function uses a non-reentrant model


 *************** function _ComputeSessionKeys *****************
 Defined at:
		line 2062 in file "mcc_generated_files/LoRaWAN/lorawan.c"
 Parameters:    Size  Location     Type
  joinAcceptBu    2   68[BANK0 ] PTR struct .
		 -> LORAWAN_RxDone@hdr(2), radioBuffer(271), 
 Auto vars:     Size  Location     Type
		None
 Return value:  Size  Location     Type
                  1    wreg      void 
 Registers used:
		wreg, fsr0l, fsr0h, fsr2l, fsr2h, status,2, status,0, tblptrl, tblptrh, tblptru, cstack
 Tracked objects:
		On entry : 
		On exit  : 
		Unchanged: 
 Data sizes:     COMRAM   BANK0   BANK1   BANK2   BANK3   BANK4   BANK5   BANK6   BANK7   BANK8   BANK9  BANK10  BANK11  BANK12  BANK13
      Params:         0       2       0       0       0       0       0       0       0       0       0       0       0       0       0
      Locals:         0       0       0       0       0       0       0       0       0       0       0       0       0       0       0
      Temps:          0       0       0       0       0       0       0       0       0       0       0       0       0       0       0
      Totals:         0       2       0       0       0       0       0       0       0       0       0       0       0       0       0
Total ram usage:        2 bytes
 Hardware stack levels used:    1
 Hardware stack levels required when called:   10
 This function calls:
		_AESEncodeLoRa
		_PrepareSessionKeys
 This function is called by:
		_LORAWAN_RxDone
 This function uses a non-reentrant model


 *************** function _PrepareSessionKeys *****************
 Defined at:
		line 2045 in file "mcc_generated_files/LoRaWAN/lorawan.c"
 Parameters:    Size  Location     Type
  sessionKey      2   14[BANK0 ] PTR unsigned char 
		 -> loRa.activationParameters(105), loRa(245), 
  appNonce        2   16[BANK0 ] PTR unsigned char 
		 -> ComputeSessionKeys@joinAcceptBuffer(2), LORAWAN_RxDone@hdr(2), radioBuffer(271), 
  networkId       2   18[BANK0 ] PTR unsigned char 
		 -> ComputeSessionKeys@joinAcceptBuffer(2), LORAWAN_RxDone@hdr(2), radioBuffer(271), 
 Auto vars:     Size  Location     Type
  index           1   20[BANK0 ] unsigned char 
 Return value:  Size  Location     Type
                  1    wreg      void 
 Registers used:
		wreg, fsr0l, fsr0h, fsr2l, fsr2h, status,2, status,0, tblptrl, tblptrh, tblptru, cstack
 Tracked objects:
		On entry : 
		On exit  : 
		Unchanged: 
 Data sizes:     COMRAM   BANK0   BANK1   BANK2   BANK3   BANK4   BANK5   BANK6   BANK7   BANK8   BANK9  BANK10  BANK11  BANK12  BANK13
      Params:         0       6       0       0       0       0       0       0       0       0       0       0       0       0       0
      Locals:         0       1       0       0       0       0       0       0       0       0       0       0       0       0       0
      Temps:          0       0       0       0       0       0       0       0       0       0       0       0       0       0       0
      Totals:         0       7       0       0       0       0       0       0       0       0       0       0       0       0       0
Total ram usage:        7 bytes
 Hardware stack levels used:    1
 Hardware stack levels required when called:    8
 This function calls:
		_memcpy
		_memset
 This function is called by:
		_ComputeSessionKeys
 This function uses a non-reentrant model


 *************** function _CheckMcastFlags *****************
 Defined at:
		line 2097 in file "mcc_generated_files/LoRaWAN/lorawan.c"
 Parameters:    Size  Location     Type
  hdr             2    4[BANK0 ] PTR struct .
		 -> LORAWAN_RxDone@hdr(2), radioBuffer(271), 
 Auto vars:     Size  Location     Type
		None
 Return value:  Size  Location     Type
                  1    wreg      unsigned char 
 Registers used:
		wreg, fsr2l, fsr2h, status,2, status,0
 Tracked objects:
		On entry : 
		On exit  : 
		Unchanged: 
 Data sizes:     COMRAM   BANK0   BANK1   BANK2   BANK3   BANK4   BANK5   BANK6   BANK7   BANK8   BANK9  BANK10  BANK11  BANK12  BANK13
      Params:         0       2       0       0       0       0       0       0       0       0       0       0       0       0       0
      Locals:         0       0       0       0       0       0       0       0       0       0       0       0       0       0       0
      Temps:          0       0       0       0       0       0       0       0       0       0       0       0       0       0       0
      Totals:         0       2       0       0       0       0       0       0       0       0       0       0       0       0       0
Total ram usage:        2 bytes
 Hardware stack levels used:    1
 Hardware stack levels required when called:    7
 This function calls:
		Nothing
 This function is called by:
		_LORAWAN_RxDone
 This function uses a non-reentrant model


 *************** function _CheckFlags *****************
 Defined at:
		line 2074 in file "mcc_generated_files/LoRaWAN/lorawan.c"
 Parameters:    Size  Location     Type
  hdr             2    4[BANK0 ] PTR struct .
		 -> LORAWAN_RxDone@hdr(2), radioBuffer(271), 
 Auto vars:     Size  Location     Type
		None
 Return value:  Size  Location     Type
                  1    wreg      void 
 Registers used:
		wreg, fsr2l, fsr2h, status,2, status,0
 Tracked objects:
		On entry : 
		On exit  : 
		Unchanged: 
 Data sizes:     COMRAM   BANK0   BANK1   BANK2   BANK3   BANK4   BANK5   BANK6   BANK7   BANK8   BANK9  BANK10  BANK11  BANK12  BANK13
      Params:         0       2       0       0       0       0       0       0       0       0       0       0       0       0       0
      Locals:         0       0       0       0       0       0       0       0       0       0       0       0       0       0       0
      Temps:          0       0       0       0       0       0       0       0       0       0       0       0       0       0       0
      Totals:         0       2       0       0       0       0       0       0       0       0       0       0       0       0       0
Total ram usage:        2 bytes
 Hardware stack levels used:    1
 Hardware stack levels required when called:    7
 This function calls:
		Nothing
 This function is called by:
		_LORAWAN_RxDone
 This function uses a non-reentrant model


 *************** function _RADIO_FSKPacketSent *****************
 Defined at:
		line 1093 in file "mcc_generated_files/LoRaWAN/radio_driver_SX1276.c"
 Parameters:    Size  Location     Type
		None
 Auto vars:     Size  Location     Type
  timeOnAir       4  120[BANK0 ] unsigned long 
  irqFlags        1  128[BANK0 ] unsigned char 
 Return value:  Size  Location     Type
                  1    wreg      void 
 Registers used:
		wreg, fsr0l, fsr0h, fsr2l, fsr2h, status,2, status,0, pclat, tosl, tblptrl, tblptrh, tblptru, prodl, prodh, cstack
 Tracked objects:
		On entry : 
		On exit  : 
		Unchanged: 
 Data sizes:     COMRAM   BANK0   BANK1   BANK2   BANK3   BANK4   BANK5   BANK6   BANK7   BANK8   BANK9  BANK10  BANK11  BANK12  BANK13
      Params:         0       0       0       0       0       0       0       0       0       0       0       0       0       0       0
      Locals:         0       9       0       0       0       0       0       0       0       0       0       0       0       0       0
      Temps:          0       0       0       0       0       0       0       0       0       0       0       0       0       0       0
      Totals:         0       9       0       0       0       0       0       0       0       0       0       0       0       0       0
Total ram usage:        9 bytes
 Hardware stack levels used:    1
 Hardware stack levels required when called:   15
 This function calls:
		_LORAWAN_TxDone
		_RADIO_RegisterRead
		_RADIO_WriteMode
		_SwTimerReadValue
		_SwTimerStop
		___lmul
 This function is called by:
		_RADIO_DIO0
 This function uses a non-reentrant model


 *************** function _LORAWAN_TxDone *****************
 Defined at:
		line 365 in file "mcc_generated_files/LoRaWAN/lorawan_eu.c"
 Parameters:    Size  Location     Type
  timeOnAir       2   84[BANK0 ] unsigned int 
 Auto vars:     Size  Location     Type
  minim           4  115[BANK0 ] unsigned long 
  ticks           4  111[BANK0 ] unsigned long 
  delta           4  103[BANK0 ] unsigned long 
  i               1  119[BANK0 ] unsigned char 
  found           1  102[BANK0 ] unsigned char 
 Return value:  Size  Location     Type
                  1    wreg      void 
 Registers used:
		wreg, fsr0l, fsr0h, fsr2l, fsr2h, status,2, status,0, pclat, tosl, tblptrl, tblptrh, tblptru, prodl, prodh, cstack
 Tracked objects:
		On entry : 
		On exit  : 
		Unchanged: 
 Data sizes:     COMRAM   BANK0   BANK1   BANK2   BANK3   BANK4   BANK5   BANK6   BANK7   BANK8   BANK9  BANK10  BANK11  BANK12  BANK13
      Params:         0       2       0       0       0       0       0       0       0       0       0       0       0       0       0
      Locals:         0      26       0       0       0       0       0       0       0       0       0       0       0       0       0
      Temps:          0       8       0       0       0       0       0       0       0       0       0       0       0       0       0
      Totals:         0      36       0       0       0       0       0       0       0       0       0       0       0       0       0
Total ram usage:       36 bytes
 Hardware stack levels used:    1
 Hardware stack levels required when called:   14
 This function calls:
		_LORAWAN_EnterContinuousReceive
		_RADIO_GetStatus
		_RxDataDone
		_SwTimerIsRunning
		_SwTimerReadValue
		_SwTimerSetTimeout
		_SwTimerStart
		_SwTimerStop
		___lldiv
		___lmul
 This function is called by:
		_RADIO_TxDone
		_RADIO_FSKPacketSent
		_RADIO_WatchdogTimeout
 This function uses a non-reentrant model


 *************** function _SwTimerReadValue *****************
 Defined at:
		line 193 in file "mcc_generated_files/LoRaWAN/sw_timer.c"
 Parameters:    Size  Location     Type
  timerId         1    wreg     unsigned char 
 Auto vars:     Size  Location     Type
  timerId         1   51[BANK0 ] unsigned char 
  ticksCount      4   47[BANK0 ] unsigned long 
 Return value:  Size  Location     Type
                  4   43[BANK0 ] unsigned long 
 Registers used:
		wreg, fsr2l, fsr2h, status,2, status,0, prodl, prodh, cstack
 Tracked objects:
		On entry : 
		On exit  : 
		Unchanged: 
 Data sizes:     COMRAM   BANK0   BANK1   BANK2   BANK3   BANK4   BANK5   BANK6   BANK7   BANK8   BANK9  BANK10  BANK11  BANK12  BANK13
      Params:         0       4       0       0       0       0       0       0       0       0       0       0       0       0       0
      Locals:         0       5       0       0       0       0       0       0       0       0       0       0       0       0       0
      Temps:          0       0       0       0       0       0       0       0       0       0       0       0       0       0       0
      Totals:         0       9       0       0       0       0       0       0       0       0       0       0       0       0       0
Total ram usage:        9 bytes
 Hardware stack levels used:    1
 Hardware stack levels required when called:   10
 This function calls:
		_SwTimersInterrupt
 This function is called by:
		_RADIO_TxDone
		_RADIO_FSKPacketSent
		_LORAWAN_TxDone
 This function uses a non-reentrant model


 *************** function _SwTimerIsRunning *****************
 Defined at:
		line 207 in file "mcc_generated_files/LoRaWAN/sw_timer.c"
 Parameters:    Size  Location     Type
  timerId         1    wreg     unsigned char 
 Auto vars:     Size  Location     Type
  timerId         1    4[BANK0 ] unsigned char 
  isRunning       1    5[BANK0 ] unsigned char 
 Return value:  Size  Location     Type
                  1    wreg      unsigned char 
 Registers used:
		wreg, fsr2l, fsr2h, status,2, status,0, prodl, prodh
 Tracked objects:
		On entry : 
		On exit  : 
		Unchanged: 
 Data sizes:     COMRAM   BANK0   BANK1   BANK2   BANK3   BANK4   BANK5   BANK6   BANK7   BANK8   BANK9  BANK10  BANK11  BANK12  BANK13
      Params:         0       0       0       0       0       0       0       0       0       0       0       0       0       0       0
      Locals:         0       2       0       0       0       0       0       0       0       0       0       0       0       0       0
      Temps:          0       0       0       0       0       0       0       0       0       0       0       0       0       0       0
      Totals:         0       2       0       0       0       0       0       0       0       0       0       0       0       0       0
Total ram usage:        2 bytes
 Hardware stack levels used:    1
 Hardware stack levels required when called:    7
 This function calls:
		Nothing
 This function is called by:
		_LORAWAN_TxDone
 This function uses a non-reentrant model


 *************** function _RADIO_GetStatus *****************
 Defined at:
		line 1116 in file "mcc_generated_files/LoRaWAN/radio_driver_SX1276.c"
 Parameters:    Size  Location     Type
		None
 Auto vars:     Size  Location     Type
		None
 Return value:  Size  Location     Type
                  1    wreg      unsigned char 
 Registers used:
		wreg, status,2
 Tracked objects:
		On entry : 
		On exit  : 
		Unchanged: 
 Data sizes:     COMRAM   BANK0   BANK1   BANK2   BANK3   BANK4   BANK5   BANK6   BANK7   BANK8   BANK9  BANK10  BANK11  BANK12  BANK13
      Params:         0       0       0       0       0       0       0       0       0       0       0       0       0       0       0
      Locals:         0       0       0       0       0       0       0       0       0       0       0       0       0       0       0
      Temps:          0       0       0       0       0       0       0       0       0       0       0       0       0       0       0
      Totals:         0       0       0       0       0       0       0       0       0       0       0       0       0       0       0
Total ram usage:        0 bytes
 Hardware stack levels used:    1
 Hardware stack levels required when called:    7
 This function calls:
		Nothing
 This function is called by:
		_LORAWAN_TxDone
		_LORAWAN_ReceiveWindow2Callback
		_LORAWAN_RxDone
 This function uses a non-reentrant model


 *************** function _LORAWAN_EnterContinuousReceive *****************
 Defined at:
		line 915 in file "mcc_generated_files/LoRaWAN/lorawan.c"
 Parameters:    Size  Location     Type
		None
 Auto vars:     Size  Location     Type
		None
 Return value:  Size  Location     Type
                  1    wreg      void 
 Registers used:
		wreg, fsr0l, fsr0h, fsr2l, fsr2h, status,2, status,0, pclat, tosl, tblptrl, tblptrh, tblptru, prodl, prodh, cstack
 Tracked objects:
		On entry : 
		On exit  : 
		Unchanged: 
 Data sizes:     COMRAM   BANK0   BANK1   BANK2   BANK3   BANK4   BANK5   BANK6   BANK7   BANK8   BANK9  BANK10  BANK11  BANK12  BANK13
      Params:         0       0       0       0       0       0       0       0       0       0       0       0       0       0       0
      Locals:         0       0       0       0       0       0       0       0       0       0       0       0       0       0       0
      Temps:          0       0       0       0       0       0       0       0       0       0       0       0       0       0       0
      Totals:         0       0       0       0       0       0       0       0       0       0       0       0       0       0       0
Total ram usage:        0 bytes
 Hardware stack levels used:    1
 Hardware stack levels required when called:   13
 This function calls:
		_ConfigureRadioRx
		_RADIO_ReceiveStart
		_RADIO_ReceiveStop
		_RADIO_ReleaseData
		_ResetParametersForConfirmedTransmission
		_ResetParametersForUnconfirmedTransmission
		_RxDataDone
 This function is called by:
		_LORAWAN_TxDone
		_LORAWAN_ReceiveWindow2Callback
		_LORAWAN_RxDone
		_SetReceptionNotOkState
 This function uses a non-reentrant model


 *************** function _RxDataDone *****************
 Defined at:
		line 108 in file "main.c"
 Parameters:    Size  Location     Type
  pData           2    4[BANK0 ] PTR unsigned char 
		 -> LORAWAN_RxDone@hdr(2), radioBuffer(271), NULL(0), 
  dataLength      1    6[BANK0 ] unsigned char 
  status          1    7[BANK0 ] enum E17267
 Auto vars:     Size  Location     Type
		None
 Return value:  Size  Location     Type
                  1    wreg      void 
 Registers used:
		None
 Tracked objects:
		On entry : 
		On exit  : 
		Unchanged: 
 Data sizes:     COMRAM   BANK0   BANK1   BANK2   BANK3   BANK4   BANK5   BANK6   BANK7   BANK8   BANK9  BANK10  BANK11  BANK12  BANK13
      Params:         0       4       0       0       0       0       0       0       0       0       0       0       0       0       0
      Locals:         0       0       0       0       0       0       0       0       0       0       0       0       0       0       0
      Temps:          0       0       0       0       0       0       0       0       0       0       0       0       0       0       0
      Totals:         0       4       0       0       0       0       0       0       0       0       0       0       0       0       0
Total ram usage:        4 bytes
 Hardware stack levels used:    1
 Hardware stack levels required when called:    7
 This function calls:
		Nothing
 This function is called by:
		_main
		_LORAWAN_EnterContinuousReceive
		_LORAWAN_ReceiveWindow2Callback
		_SetReceptionNotOkState
		_LORAWAN_RxDone
		_LORAWAN_RxTimeout
		_LORAWAN_TxDone
		_AckRetransmissionCallback
		_UnconfirmedTransmissionCallback
 This function uses a non-reentrant model


 *************** function _ResetParametersForUnconfirmedTransmission *****************
 Defined at:
		line 1097 in file "mcc_generated_files/LoRaWAN/lorawan.c"
 Parameters:    Size  Location     Type
		None
 Auto vars:     Size  Location     Type
		None
 Return value:  Size  Location     Type
                  1    wreg      void 
 Registers used:
		wreg, status,2
 Tracked objects:
		On entry : 
		On exit  : 
		Unchanged: 
 Data sizes:     COMRAM   BANK0   BANK1   BANK2   BANK3   BANK4   BANK5   BANK6   BANK7   BANK8   BANK9  BANK10  BANK11  BANK12  BANK13
      Params:         0       0       0       0       0       0       0       0       0       0       0       0       0       0       0
      Locals:         0       0       0       0       0       0       0       0       0       0       0       0       0       0       0
      Temps:          0       0       0       0       0       0       0       0       0       0       0       0       0       0       0
      Totals:         0       0       0       0       0       0       0       0       0       0       0       0       0       0       0
Total ram usage:        0 bytes
 Hardware stack levels used:    1
 Hardware stack levels required when called:    7
 This function calls:
		Nothing
 This function is called by:
		_LORAWAN_RxTimeout
		_LORAWAN_ReceiveWindow2Callback
		_LORAWAN_EnterContinuousReceive
		_UnconfirmedTransmissionCallback
 This function uses a non-reentrant model


 *************** function _ResetParametersForConfirmedTransmission *****************
 Defined at:
		line 1090 in file "mcc_generated_files/LoRaWAN/lorawan.c"
 Parameters:    Size  Location     Type
		None
 Auto vars:     Size  Location     Type
		None
 Return value:  Size  Location     Type
                  1    wreg      void 
 Registers used:
		wreg, status,2
 Tracked objects:
		On entry : 
		On exit  : 
		Unchanged: 
 Data sizes:     COMRAM   BANK0   BANK1   BANK2   BANK3   BANK4   BANK5   BANK6   BANK7   BANK8   BANK9  BANK10  BANK11  BANK12  BANK13
      Params:         0       0       0       0       0       0       0       0       0       0       0       0       0       0       0
      Locals:         0       0       0       0       0       0       0       0       0       0       0       0       0       0       0
      Temps:          0       0       0       0       0       0       0       0       0       0       0       0       0       0       0
      Totals:         0       0       0       0       0       0       0       0       0       0       0       0       0       0       0
Total ram usage:        0 bytes
 Hardware stack levels used:    1
 Hardware stack levels required when called:    7
 This function calls:
		Nothing
 This function is called by:
		_LORAWAN_RxTimeout
		_LORAWAN_ReceiveWindow2Callback
		_LORAWAN_EnterContinuousReceive
		_AckRetransmissionCallback
 This function uses a non-reentrant model


 *************** function _RADIO_ReleaseData *****************
 Defined at:
		line 1134 in file "mcc_generated_files/LoRaWAN/radio_driver_SX1276.c"
 Parameters:    Size  Location     Type
		None
 Auto vars:     Size  Location     Type
		None
 Return value:  Size  Location     Type
                  1    wreg      void 
 Registers used:
		status,2, status,0
 Tracked objects:
		On entry : 
		On exit  : 
		Unchanged: 
 Data sizes:     COMRAM   BANK0   BANK1   BANK2   BANK3   BANK4   BANK5   BANK6   BANK7   BANK8   BANK9  BANK10  BANK11  BANK12  BANK13
      Params:         0       0       0       0       0       0       0       0       0       0       0       0       0       0       0
      Locals:         0       0       0       0       0       0       0       0       0       0       0       0       0       0       0
      Temps:          0       0       0       0       0       0       0       0       0       0       0       0       0       0       0
      Totals:         0       0       0       0       0       0       0       0       0       0       0       0       0       0       0
Total ram usage:        0 bytes
 Hardware stack levels used:    1
 Hardware stack levels required when called:    7
 This function calls:
		Nothing
 This function is called by:
		_LORAWAN_ReceiveWindow1Callback
		_LORAWAN_ReceiveWindow2Callback
		_LORAWAN_EnterContinuousReceive
		_LORAWAN_RxDone
 This function uses a non-reentrant model


 *************** function _RADIO_ReceiveStop *****************
 Defined at:
		line 951 in file "mcc_generated_files/LoRaWAN/radio_driver_SX1276.c"
 Parameters:    Size  Location     Type
		None
 Auto vars:     Size  Location     Type
		None
 Return value:  Size  Location     Type
                  1    wreg      void 
 Registers used:
		wreg, status,2, status,0, cstack
 Tracked objects:
		On entry : 
		On exit  : 
		Unchanged: 
 Data sizes:     COMRAM   BANK0   BANK1   BANK2   BANK3   BANK4   BANK5   BANK6   BANK7   BANK8   BANK9  BANK10  BANK11  BANK12  BANK13
      Params:         0       0       0       0       0       0       0       0       0       0       0       0       0       0       0
      Locals:         0       0       0       0       0       0       0       0       0       0       0       0       0       0       0
      Temps:          0       0       0       0       0       0       0       0       0       0       0       0       0       0       0
      Totals:         0       0       0       0       0       0       0       0       0       0       0       0       0       0       0
Total ram usage:        0 bytes
 Hardware stack levels used:    1
 Hardware stack levels required when called:   11
 This function calls:
		_RADIO_WriteMode
 This function is called by:
		_LORAWAN_Send
		_LORAWAN_ReceiveWindow1Callback
		_LORAWAN_ReceiveWindow2Callback
		_LORAWAN_EnterContinuousReceive
 This function uses a non-reentrant model


 *************** function _RADIO_ReceiveStart *****************
 Defined at:
		line 875 in file "mcc_generated_files/LoRaWAN/radio_driver_SX1276.c"
 Parameters:    Size  Location     Type
  rxWindowSize    2   74[BANK0 ] unsigned int 
 Auto vars:     Size  Location     Type
		None
 Return value:  Size  Location     Type
                  2   74[BANK0 ] enum E16979
 Registers used:
		wreg, fsr2l, fsr2h, status,2, status,0, prodl, prodh, cstack
 Tracked objects:
		On entry : 
		On exit  : 
		Unchanged: 
 Data sizes:     COMRAM   BANK0   BANK1   BANK2   BANK3   BANK4   BANK5   BANK6   BANK7   BANK8   BANK9  BANK10  BANK11  BANK12  BANK13
      Params:         0       2       0       0       0       0       0       0       0       0       0       0       0       0       0
      Locals:         0       4       0       0       0       0       0       0       0       0       0       0       0       0       0
      Temps:          0       4       0       0       0       0       0       0       0       0       0       0       0       0       0
      Totals:         0      10       0       0       0       0       0       0       0       0       0       0       0       0       0
Total ram usage:       10 bytes
 Hardware stack levels used:    1
 Hardware stack levels required when called:   12
 This function calls:
		_RADIO_RegisterWrite
		_RADIO_WriteConfiguration
		_RADIO_WriteMode
		_SwTimerSetTimeout
		_SwTimerStart
		___lldiv
 This function is called by:
		_LORAWAN_ReceiveWindow1Callback
		_LORAWAN_ReceiveWindow2Callback
		_LORAWAN_EnterContinuousReceive
 This function uses a non-reentrant model


 *************** function _ConfigureRadioRx *****************
 Defined at:
		line 2019 in file "mcc_generated_files/LoRaWAN/lorawan.c"
 Parameters:    Size  Location     Type
  dataRate        1    wreg     unsigned char 
  freq            4   22[BANK0 ] unsigned long 
 Auto vars:     Size  Location     Type
  dataRate        1   26[BANK0 ] unsigned char 
 Return value:  Size  Location     Type
                  1    wreg      void 
 Registers used:
		wreg, fsr0l, fsr0h, fsr2l, fsr2h, status,2, status,0, tblptrl, tblptrh, tblptru, cstack
 Tracked objects:
		On entry : 
		On exit  : 
		Unchanged: 
 Data sizes:     COMRAM   BANK0   BANK1   BANK2   BANK3   BANK4   BANK5   BANK6   BANK7   BANK8   BANK9  BANK10  BANK11  BANK12  BANK13
      Params:         0       4       0       0       0       0       0       0       0       0       0       0       0       0       0
      Locals:         0       1       0       0       0       0       0       0       0       0       0       0       0       0       0
      Temps:          0       0       0       0       0       0       0       0       0       0       0       0       0       0       0
      Totals:         0       5       0       0       0       0       0       0       0       0       0       0       0       0       0
Total ram usage:        5 bytes
 Hardware stack levels used:    1
 Hardware stack levels required when called:   10
 This function calls:
		_ConfigureRadio
		_RADIO_SetCRC
		_RADIO_SetIQInverted
 This function is called by:
		_LORAWAN_ReceiveWindow1Callback
		_LORAWAN_ReceiveWindow2Callback
		_LORAWAN_EnterContinuousReceive
 This function uses a non-reentrant model


 *************** function _INTERRUPT_GetDioStatus *****************
 Defined at:
		line 48 in file "mcc_generated_files/LoRaWAN/interrupt_manager_lora_addons.c"
 Parameters:    Size  Location     Type
		None
 Auto vars:     Size  Location     Type
  a               1    4[BANK0 ] unsigned char 
 Return value:  Size  Location     Type
                  1    wreg      unsigned char 
 Registers used:
		wreg, status,2
 Tracked objects:
		On entry : 
		On exit  : 
		Unchanged: 
 Data sizes:     COMRAM   BANK0   BANK1   BANK2   BANK3   BANK4   BANK5   BANK6   BANK7   BANK8   BANK9  BANK10  BANK11  BANK12  BANK13
      Params:         0       0       0       0       0       0       0       0       0       0       0       0       0       0       0
      Locals:         0       1       0       0       0       0       0       0       0       0       0       0       0       0       0
      Temps:          0       0       0       0       0       0       0       0       0       0       0       0       0       0       0
      Totals:         0       1       0       0       0       0       0       0       0       0       0       0       0       0       0
Total ram usage:        1 bytes
 Hardware stack levels used:    1
 Hardware stack levels required when called:    7
 This function calls:
		Nothing
 This function is called by:
		_LORAWAN_Mainloop
 This function uses a non-reentrant model


 *************** function _LORAWAN_Join *****************
 Defined at:
		line 115 in file "mcc_generated_files/LoRaWAN/lorawan.c"
 Parameters:    Size  Location     Type
  activationTy    1    wreg     enum E17154
 Auto vars:     Size  Location     Type
  activationTy    1  142[BANK0 ] enum E17154
  result          1  141[BANK0 ] enum E17131
  bufferIndex     1  140[BANK0 ] unsigned char 
 Return value:  Size  Location     Type
                  1    wreg      enum E17131
 Registers used:
		wreg, fsr0l, fsr0h, fsr2l, fsr2h, status,2, status,0, tblptrl, tblptrh, tblptru, prodl, prodh, cstack
 Tracked objects:
		On entry : 
		On exit  : 
		Unchanged: 
 Data sizes:     COMRAM   BANK0   BANK1   BANK2   BANK3   BANK4   BANK5   BANK6   BANK7   BANK8   BANK9  BANK10  BANK11  BANK12  BANK13
      Params:         0       0       0       0       0       0       0       0       0       0       0       0       0       0       0
      Locals:         0       3       0       0       0       0       0       0       0       0       0       0       0       0       0
      Temps:          0       0       0       0       0       0       0       0       0       0       0       0       0       0       0
      Totals:         0       3       0       0       0       0       0       0       0       0       0       0       0       0       0
Total ram usage:        3 bytes
 Hardware stack levels used:    1
 Hardware stack levels required when called:   14
 This function calls:
		_PrepareJoinRequestFrame
		_RADIO_Transmit
		_SelectChannelForTransmission
		_SwTimerSetTimeout
		_SwTimerStart
		_UpdateJoinInProgress
 This function is called by:
		_main
 This function uses a non-reentrant model


 *************** function _UpdateJoinInProgress *****************
 Defined at:
		line 2037 in file "mcc_generated_files/LoRaWAN/lorawan.c"
 Parameters:    Size  Location     Type
  state           1    wreg     unsigned char 
 Auto vars:     Size  Location     Type
  state           1    4[BANK0 ] unsigned char 
 Return value:  Size  Location     Type
                  1    wreg      void 
 Registers used:
		wreg, status,2, status,0
 Tracked objects:
		On entry : 
		On exit  : 
		Unchanged: 
 Data sizes:     COMRAM   BANK0   BANK1   BANK2   BANK3   BANK4   BANK5   BANK6   BANK7   BANK8   BANK9  BANK10  BANK11  BANK12  BANK13
      Params:         0       0       0       0       0       0       0       0       0       0       0       0       0       0       0
      Locals:         0       1       0       0       0       0       0       0       0       0       0       0       0       0       0
      Temps:          0       0       0       0       0       0       0       0       0       0       0       0       0       0       0
      Totals:         0       1       0       0       0       0       0       0       0       0       0       0       0       0       0
Total ram usage:        1 bytes
 Hardware stack levels used:    1
 Hardware stack levels required when called:    7
 This function calls:
		Nothing
 This function is called by:
		_LORAWAN_Join
 This function uses a non-reentrant model


 *************** function _SelectChannelForTransmission *****************
 Defined at:
		line 919 in file "mcc_generated_files/LoRaWAN/lorawan_eu.c"
 Parameters:    Size  Location     Type
  transmission    1    wreg     unsigned char 
 Auto vars:     Size  Location     Type
  transmission    1   85[BANK0 ] unsigned char 
  channelIndex    1   87[BANK0 ] unsigned char 
  result          1   86[BANK0 ] enum E17190
 Return value:  Size  Location     Type
                  1    wreg      enum E17190
 Registers used:
		wreg, fsr0l, fsr0h, fsr2l, fsr2h, status,2, status,0, tblptrl, tblptrh, tblptru, prodl, prodh, cstack
 Tracked objects:
		On entry : 
		On exit  : 
		Unchanged: 
 Data sizes:     COMRAM   BANK0   BANK1   BANK2   BANK3   BANK4   BANK5   BANK6   BANK7   BANK8   BANK9  BANK10  BANK11  BANK12  BANK13
      Params:         0       0       0       0       0       0       0       0       0       0       0       0       0       0       0
      Locals:         0       3       0       0       0       0       0       0       0       0       0       0       0       0       0
      Temps:          0       0       0       0       0       0       0       0       0       0       0       0       0       0       0
      Totals:         0       3       0       0       0       0       0       0       0       0       0       0       0       0       0
Total ram usage:        3 bytes
 Hardware stack levels used:    1
 Hardware stack levels required when called:   11
 This function calls:
		_ConfigureRadioTx
		_SearchAvailableChannel
 This function is called by:
		_LORAWAN_RxTimeout
		_LORAWAN_Join
		_LORAWAN_Send
		_AckRetransmissionCallback
		_UnconfirmedTransmissionCallback
 This function uses a non-reentrant model


 *************** function _SearchAvailableChannel *****************
 Defined at:
		line 778 in file "mcc_generated_files/LoRaWAN/lorawan_eu.c"
 Parameters:    Size  Location     Type
  maxChannels     1    wreg     unsigned char 
  transmission    1   73[BANK0 ] unsigned char 
  channelIndex    2   74[BANK0 ] PTR unsigned char 
		 -> LORAWAN_RxDone@channelIndex(1), SelectChannelForTransmission@channelIndex(1), 
 Auto vars:     Size  Location     Type
  maxChannels     1   82[BANK0 ] unsigned char 
  i               1   84[BANK0 ] unsigned char 
  randomNumber    1   83[BANK0 ] unsigned char 
  result          1   81[BANK0 ] enum E17190
  randomNumber    1   80[BANK0 ] unsigned char 
 Return value:  Size  Location     Type
                  1    wreg      enum E17190
 Registers used:
		wreg, fsr2l, fsr2h, status,2, status,0, prodl, prodh, cstack
 Tracked objects:
		On entry : 
		On exit  : 
		Unchanged: 
 Data sizes:     COMRAM   BANK0   BANK1   BANK2   BANK3   BANK4   BANK5   BANK6   BANK7   BANK8   BANK9  BANK10  BANK11  BANK12  BANK13
      Params:         0       3       0       0       0       0       0       0       0       0       0       0       0       0       0
      Locals:         0       5       0       0       0       0       0       0       0       0       0       0       0       0       0
      Temps:          0       4       0       0       0       0       0       0       0       0       0       0       0       0       0
      Totals:         0      12       0       0       0       0       0       0       0       0       0       0       0       0       0
Total ram usage:       12 bytes
 Hardware stack levels used:    1
 Hardware stack levels required when called:   10
 This function calls:
		_Random
 This function is called by:
		_SelectChannelForTransmission
		_LORAWAN_RxDone
 This function uses a non-reentrant model


 *************** function _ConfigureRadioTx *****************
 Defined at:
		line 1255 in file "mcc_generated_files/LoRaWAN/lorawan_eu.c"
 Parameters:    Size  Location     Type
  dataRate        1    wreg     unsigned char 
  freq            4   22[BANK0 ] unsigned long 
 Auto vars:     Size  Location     Type
  dataRate        1   26[BANK0 ] unsigned char 
  txPower         1   27[BANK0 ] char 
 Return value:  Size  Location     Type
                  1    wreg      void 
 Registers used:
		wreg, fsr0l, fsr0h, fsr2l, fsr2h, status,2, status,0, tblptrl, tblptrh, tblptru, cstack
 Tracked objects:
		On entry : 
		On exit  : 
		Unchanged: 
 Data sizes:     COMRAM   BANK0   BANK1   BANK2   BANK3   BANK4   BANK5   BANK6   BANK7   BANK8   BANK9  BANK10  BANK11  BANK12  BANK13
      Params:         0       4       0       0       0       0       0       0       0       0       0       0       0       0       0
      Locals:         0       2       0       0       0       0       0       0       0       0       0       0       0       0       0
      Temps:          0       0       0       0       0       0       0       0       0       0       0       0       0       0       0
      Totals:         0       6       0       0       0       0       0       0       0       0       0       0       0       0       0
Total ram usage:        6 bytes
 Hardware stack levels used:    1
 Hardware stack levels required when called:   10
 This function calls:
		_ConfigureRadio
		_RADIO_SetCRC
		_RADIO_SetIQInverted
		_RADIO_SetOutputPower
 This function is called by:
		_SelectChannelForTransmission
 This function uses a non-reentrant model


 *************** function _RADIO_SetOutputPower *****************
 Defined at:
		line 1464 in file "mcc_generated_files/LoRaWAN/radio_driver_SX1276.c"
 Parameters:    Size  Location     Type
  power           1    wreg     char 
 Auto vars:     Size  Location     Type
  power           1    4[BANK0 ] char 
 Return value:  Size  Location     Type
                  1    wreg      void 
 Registers used:
		wreg
 Tracked objects:
		On entry : 
		On exit  : 
		Unchanged: 
 Data sizes:     COMRAM   BANK0   BANK1   BANK2   BANK3   BANK4   BANK5   BANK6   BANK7   BANK8   BANK9  BANK10  BANK11  BANK12  BANK13
      Params:         0       0       0       0       0       0       0       0       0       0       0       0       0       0       0
      Locals:         0       1       0       0       0       0       0       0       0       0       0       0       0       0       0
      Temps:          0       0       0       0       0       0       0       0       0       0       0       0       0       0       0
      Totals:         0       1       0       0       0       0       0       0       0       0       0       0       0       0       0
Total ram usage:        1 bytes
 Hardware stack levels used:    1
 Hardware stack levels required when called:    7
 This function calls:
		Nothing
 This function is called by:
		_ConfigureRadioTx
 This function uses a non-reentrant model


 *************** function _RADIO_SetIQInverted *****************
 Defined at:
		line 1484 in file "mcc_generated_files/LoRaWAN/radio_driver_SX1276.c"
 Parameters:    Size  Location     Type
  iqInverted      1    wreg     unsigned char 
 Auto vars:     Size  Location     Type
  iqInverted      1    4[BANK0 ] unsigned char 
 Return value:  Size  Location     Type
                  1    wreg      void 
 Registers used:
		wreg
 Tracked objects:
		On entry : 
		On exit  : 
		Unchanged: 
 Data sizes:     COMRAM   BANK0   BANK1   BANK2   BANK3   BANK4   BANK5   BANK6   BANK7   BANK8   BANK9  BANK10  BANK11  BANK12  BANK13
      Params:         0       0       0       0       0       0       0       0       0       0       0       0       0       0       0
      Locals:         0       1       0       0       0       0       0       0       0       0       0       0       0       0       0
      Temps:          0       0       0       0       0       0       0       0       0       0       0       0       0       0       0
      Totals:         0       1       0       0       0       0       0       0       0       0       0       0       0       0       0
Total ram usage:        1 bytes
 Hardware stack levels used:    1
 Hardware stack levels required when called:    7
 This function calls:
		Nothing
 This function is called by:
		_ConfigureRadioTx
		_ConfigureRadioRx
 This function uses a non-reentrant model


 *************** function _RADIO_SetCRC *****************
 Defined at:
		line 1474 in file "mcc_generated_files/LoRaWAN/radio_driver_SX1276.c"
 Parameters:    Size  Location     Type
  crc             1    wreg     unsigned char 
 Auto vars:     Size  Location     Type
  crc             1    4[BANK0 ] unsigned char 
 Return value:  Size  Location     Type
                  1    wreg      void 
 Registers used:
		wreg
 Tracked objects:
		On entry : 
		On exit  : 
		Unchanged: 
 Data sizes:     COMRAM   BANK0   BANK1   BANK2   BANK3   BANK4   BANK5   BANK6   BANK7   BANK8   BANK9  BANK10  BANK11  BANK12  BANK13
      Params:         0       0       0       0       0       0       0       0       0       0       0       0       0       0       0
      Locals:         0       1       0       0       0       0       0       0       0       0       0       0       0       0       0
      Temps:          0       0       0       0       0       0       0       0       0       0       0       0       0       0       0
      Totals:         0       1       0       0       0       0       0       0       0       0       0       0       0       0       0
Total ram usage:        1 bytes
 Hardware stack levels used:    1
 Hardware stack levels required when called:    7
 This function calls:
		Nothing
 This function is called by:
		_ConfigureRadioTx
		_ConfigureRadioRx
 This function uses a non-reentrant model


 *************** function _ConfigureRadio *****************
 Defined at:
		line 863 in file "mcc_generated_files/LoRaWAN/lorawan_eu.c"
 Parameters:    Size  Location     Type
  dataRate        1    wreg     unsigned char 
  freq            4   17[BANK0 ] unsigned long 
 Auto vars:     Size  Location     Type
  dataRate        1   21[BANK0 ] unsigned char 
 Return value:  Size  Location     Type
                  1    wreg      void 
 Registers used:
		wreg, fsr0l, fsr0h, fsr2l, fsr2h, status,2, status,0, tblptrl, tblptrh, tblptru, cstack
 Tracked objects:
		On entry : 
		On exit  : 
		Unchanged: 
 Data sizes:     COMRAM   BANK0   BANK1   BANK2   BANK3   BANK4   BANK5   BANK6   BANK7   BANK8   BANK9  BANK10  BANK11  BANK12  BANK13
      Params:         0       4       0       0       0       0       0       0       0       0       0       0       0       0       0
      Locals:         0       1       0       0       0       0       0       0       0       0       0       0       0       0       0
      Temps:          0       0       0       0       0       0       0       0       0       0       0       0       0       0       0
      Totals:         0       5       0       0       0       0       0       0       0       0       0       0       0       0       0
Total ram usage:        5 bytes
 Hardware stack levels used:    1
 Hardware stack levels required when called:    9
 This function calls:
		_RADIO_SetBandwidth
		_RADIO_SetChannelFrequency
		_RADIO_SetFSKSyncWord
		_RADIO_SetFrequencyHopPeriod
		_RADIO_SetLoRaSyncWord
		_RADIO_SetModulation
		_RADIO_SetSpreadingFactor
 This function is called by:
		_ConfigureRadioTx
		_ConfigureRadioRx
 This function uses a non-reentrant model


 *************** function _RADIO_SetSpreadingFactor *****************
 Defined at:
		line 1434 in file "mcc_generated_files/LoRaWAN/radio_driver_SX1276.c"
 Parameters:    Size  Location     Type
  spreadingFac    1    wreg     enum E16935
 Auto vars:     Size  Location     Type
  spreadingFac    1    4[BANK0 ] enum E16935
 Return value:  Size  Location     Type
                  1    wreg      void 
 Registers used:
		wreg
 Tracked objects:
		On entry : 
		On exit  : 
		Unchanged: 
 Data sizes:     COMRAM   BANK0   BANK1   BANK2   BANK3   BANK4   BANK5   BANK6   BANK7   BANK8   BANK9  BANK10  BANK11  BANK12  BANK13
      Params:         0       0       0       0       0       0       0       0       0       0       0       0       0       0       0
      Locals:         0       1       0       0       0       0       0       0       0       0       0       0       0       0       0
      Temps:          0       0       0       0       0       0       0       0       0       0       0       0       0       0       0
      Totals:         0       1       0       0       0       0       0       0       0       0       0       0       0       0       0
Total ram usage:        1 bytes
 Hardware stack levels used:    1
 Hardware stack levels required when called:    7
 This function calls:
		Nothing
 This function is called by:
		_ConfigureRadio
 This function uses a non-reentrant model


 *************** function _RADIO_SetModulation *****************
 Defined at:
		line 1515 in file "mcc_generated_files/LoRaWAN/radio_driver_SX1276.c"
 Parameters:    Size  Location     Type
  modulation      1    wreg     enum E16925
 Auto vars:     Size  Location     Type
  modulation      1    4[BANK0 ] enum E16925
 Return value:  Size  Location     Type
                  1    wreg      void 
 Registers used:
		wreg
 Tracked objects:
		On entry : 
		On exit  : 
		Unchanged: 
 Data sizes:     COMRAM   BANK0   BANK1   BANK2   BANK3   BANK4   BANK5   BANK6   BANK7   BANK8   BANK9  BANK10  BANK11  BANK12  BANK13
      Params:         0       0       0       0       0       0       0       0       0       0       0       0       0       0       0
      Locals:         0       1       0       0       0       0       0       0       0       0       0       0       0       0       0
      Temps:          0       0       0       0       0       0       0       0       0       0       0       0       0       0       0
      Totals:         0       1       0       0       0       0       0       0       0       0       0       0       0       0       0
Total ram usage:        1 bytes
 Hardware stack levels used:    1
 Hardware stack levels required when called:    7
 This function calls:
		Nothing
 This function is called by:
		_ConfigureRadio
 This function uses a non-reentrant model


 *************** function _RADIO_SetFrequencyHopPeriod *****************
 Defined at:
		line 1550 in file "mcc_generated_files/LoRaWAN/radio_driver_SX1276.c"
 Parameters:    Size  Location     Type
  frequencyHop    2    4[BANK0 ] unsigned int 
 Auto vars:     Size  Location     Type
		None
 Return value:  Size  Location     Type
                  1    wreg      void 
 Registers used:
		None
 Tracked objects:
		On entry : 
		On exit  : 
		Unchanged: 
 Data sizes:     COMRAM   BANK0   BANK1   BANK2   BANK3   BANK4   BANK5   BANK6   BANK7   BANK8   BANK9  BANK10  BANK11  BANK12  BANK13
      Params:         0       2       0       0       0       0       0       0       0       0       0       0       0       0       0
      Locals:         0       0       0       0       0       0       0       0       0       0       0       0       0       0       0
      Temps:          0       0       0       0       0       0       0       0       0       0       0       0       0       0       0
      Totals:         0       2       0       0       0       0       0       0       0       0       0       0       0       0       0
Total ram usage:        2 bytes
 Hardware stack levels used:    1
 Hardware stack levels required when called:    7
 This function calls:
		Nothing
 This function is called by:
		_ConfigureRadio
 This function uses a non-reentrant model


 *************** function _RADIO_SetFSKSyncWord *****************
 Defined at:
		line 1624 in file "mcc_generated_files/LoRaWAN/radio_driver_SX1276.c"
 Parameters:    Size  Location     Type
  syncWordLen     1    wreg     unsigned char 
  syncWord        2   14[BANK0 ] PTR unsigned char 
		 -> FskSyncWordBuff(3), 
 Auto vars:     Size  Location     Type
  syncWordLen     1   16[BANK0 ] unsigned char 
 Return value:  Size  Location     Type
                  1    wreg      void 
 Registers used:
		wreg, fsr0l, fsr0h, fsr2l, fsr2h, status,2, status,0, tblptrl, tblptrh, tblptru, cstack
 Tracked objects:
		On entry : 
		On exit  : 
		Unchanged: 
 Data sizes:     COMRAM   BANK0   BANK1   BANK2   BANK3   BANK4   BANK5   BANK6   BANK7   BANK8   BANK9  BANK10  BANK11  BANK12  BANK13
      Params:         0       2       0       0       0       0       0       0       0       0       0       0       0       0       0
      Locals:         0       1       0       0       0       0       0       0       0       0       0       0       0       0       0
      Temps:          0       0       0       0       0       0       0       0       0       0       0       0       0       0       0
      Totals:         0       3       0       0       0       0       0       0       0       0       0       0       0       0       0
Total ram usage:        3 bytes
 Hardware stack levels used:    1
 Hardware stack levels required when called:    8
 This function calls:
		_memcpy
 This function is called by:
		_ConfigureRadio
 This function uses a non-reentrant model


 *************** function _RADIO_SetChannelFrequency *****************
 Defined at:
		line 1444 in file "mcc_generated_files/LoRaWAN/radio_driver_SX1276.c"
 Parameters:    Size  Location     Type
  frequency       4    4[BANK0 ] unsigned long 
 Auto vars:     Size  Location     Type
		None
 Return value:  Size  Location     Type
                  2    4[BANK0 ] enum E16979
 Registers used:
		wreg, status,2, status,0
 Tracked objects:
		On entry : 
		On exit  : 
		Unchanged: 
 Data sizes:     COMRAM   BANK0   BANK1   BANK2   BANK3   BANK4   BANK5   BANK6   BANK7   BANK8   BANK9  BANK10  BANK11  BANK12  BANK13
      Params:         0       4       0       0       0       0       0       0       0       0       0       0       0       0       0
      Locals:         0       0       0       0       0       0       0       0       0       0       0       0       0       0       0
      Temps:          0       0       0       0       0       0       0       0       0       0       0       0       0       0       0
      Totals:         0       4       0       0       0       0       0       0       0       0       0       0       0       0       0
Total ram usage:        4 bytes
 Hardware stack levels used:    1
 Hardware stack levels required when called:    7
 This function calls:
		Nothing
 This function is called by:
		_ConfigureRadio
 This function uses a non-reentrant model


 *************** function _RADIO_SetBandwidth *****************
 Defined at:
		line 1495 in file "mcc_generated_files/LoRaWAN/radio_driver_SX1276.c"
 Parameters:    Size  Location     Type
  bandwidth       1    wreg     enum E16943
 Auto vars:     Size  Location     Type
  bandwidth       1    4[BANK0 ] enum E16943
 Return value:  Size  Location     Type
                  1    wreg      void 
 Registers used:
		wreg
 Tracked objects:
		On entry : 
		On exit  : 
		Unchanged: 
 Data sizes:     COMRAM   BANK0   BANK1   BANK2   BANK3   BANK4   BANK5   BANK6   BANK7   BANK8   BANK9  BANK10  BANK11  BANK12  BANK13
      Params:         0       0       0       0       0       0       0       0       0       0       0       0       0       0       0
      Locals:         0       1       0       0       0       0       0       0       0       0       0       0       0       0       0
      Temps:          0       0       0       0       0       0       0       0       0       0       0       0       0       0       0
      Totals:         0       1       0       0       0       0       0       0       0       0       0       0       0       0       0
Total ram usage:        1 bytes
 Hardware stack levels used:    1
 Hardware stack levels required when called:    7
 This function calls:
		Nothing
 This function is called by:
		_ConfigureRadio
 This function uses a non-reentrant model


 *************** function _RADIO_Transmit *****************
 Defined at:
		line 786 in file "mcc_generated_files/LoRaWAN/radio_driver_SX1276.c"
 Parameters:    Size  Location     Type
  buffer          2   74[BANK0 ] PTR unsigned char 
		 -> macBuffer(271), 
  bufferLen       1   76[BANK0 ] unsigned char 
 Auto vars:     Size  Location     Type
  i               1   90[BANK0 ] unsigned char 
  regValue        1   89[BANK0 ] unsigned char 
 Return value:  Size  Location     Type
                  2   74[BANK0 ] enum E16979
 Registers used:
		wreg, fsr2l, fsr2h, status,2, status,0, prodl, prodh, cstack
 Tracked objects:
		On entry : 
		On exit  : 
		Unchanged: 
 Data sizes:     COMRAM   BANK0   BANK1   BANK2   BANK3   BANK4   BANK5   BANK6   BANK7   BANK8   BANK9  BANK10  BANK11  BANK12  BANK13
      Params:         0       3       0       0       0       0       0       0       0       0       0       0       0       0       0
      Locals:         0      10       0       0       0       0       0       0       0       0       0       0       0       0       0
      Temps:          0       4       0       0       0       0       0       0       0       0       0       0       0       0       0
      Totals:         0      17       0       0       0       0       0       0       0       0       0       0       0       0       0
Total ram usage:       17 bytes
 Hardware stack levels used:    1
 Hardware stack levels required when called:   12
 This function calls:
		_HALSPICSAssert
		_HALSPICSDeassert
		_HALSPISend
		_RADIO_RegisterRead
		_RADIO_RegisterWrite
		_RADIO_WriteConfiguration
		_RADIO_WriteMode
		_SwTimerSetTimeout
		_SwTimerStart
		_SwTimerStop
		___lldiv
 This function is called by:
		_LORAWAN_RxTimeout
		_LORAWAN_Join
		_LORAWAN_Send
		_AckRetransmissionCallback
		_UnconfirmedTransmissionCallback
 This function uses a non-reentrant model


 *************** function _RADIO_WriteConfiguration *****************
 Defined at:
		line 533 in file "mcc_generated_files/LoRaWAN/radio_driver_SX1276.c"
 Parameters:    Size  Location     Type
  symbolTimeou    2   64[BANK0 ] unsigned int 
 Auto vars:     Size  Location     Type
  tempValue       4   69[BANK0 ] unsigned long 
  regValue        1   73[BANK0 ] unsigned char 
  i               1   68[BANK0 ] unsigned char 
 Return value:  Size  Location     Type
                  1    wreg      void 
 Registers used:
		wreg, fsr2l, fsr2h, status,2, status,0, cstack
 Tracked objects:
		On entry : 
		On exit  : 
		Unchanged: 
 Data sizes:     COMRAM   BANK0   BANK1   BANK2   BANK3   BANK4   BANK5   BANK6   BANK7   BANK8   BANK9  BANK10  BANK11  BANK12  BANK13
      Params:         0       2       0       0       0       0       0       0       0       0       0       0       0       0       0
      Locals:         0       6       0       0       0       0       0       0       0       0       0       0       0       0       0
      Temps:          0       2       0       0       0       0       0       0       0       0       0       0       0       0       0
      Totals:         0      10       0       0       0       0       0       0       0       0       0       0       0       0       0
Total ram usage:       10 bytes
 Hardware stack levels used:    1
 Hardware stack levels required when called:   11
 This function calls:
		_RADIO_RegisterRead
		_RADIO_RegisterWrite
		_RADIO_WriteFSKBitRate
		_RADIO_WriteFSKFrequencyDeviation
		_RADIO_WriteFrequency
		_RADIO_WriteMode
		_RADIO_WritePower
		___lmul
 This function is called by:
		_RADIO_Transmit
		_RADIO_ReceiveStart
 This function uses a non-reentrant model


 *************** function _RADIO_WritePower *****************
 Defined at:
		line 342 in file "mcc_generated_files/LoRaWAN/radio_driver_SX1276.c"
 Parameters:    Size  Location     Type
  power           1    wreg     char 
 Auto vars:     Size  Location     Type
  power           1   10[BANK0 ] char 
  paDac           1    9[BANK0 ] unsigned char 
  ocp             1    8[BANK0 ] unsigned char 
 Return value:  Size  Location     Type
                  1    wreg      void 
 Registers used:
		wreg, status,2, status,0, cstack
 Tracked objects:
		On entry : 
		On exit  : 
		Unchanged: 
 Data sizes:     COMRAM   BANK0   BANK1   BANK2   BANK3   BANK4   BANK5   BANK6   BANK7   BANK8   BANK9  BANK10  BANK11  BANK12  BANK13
      Params:         0       0       0       0       0       0       0       0       0       0       0       0       0       0       0
      Locals:         0       3       0       0       0       0       0       0       0       0       0       0       0       0       0
      Temps:          0       0       0       0       0       0       0       0       0       0       0       0       0       0       0
      Totals:         0       3       0       0       0       0       0       0       0       0       0       0       0       0       0
Total ram usage:        3 bytes
 Hardware stack levels used:    1
 Hardware stack levels required when called:   10
 This function calls:
		_RADIO_RegisterRead
		_RADIO_RegisterWrite
 This function is called by:
		_RADIO_WriteConfiguration
 This function uses a non-reentrant model


 *************** function _RADIO_WriteFSKFrequencyDeviation *****************
 Defined at:
		line 294 in file "mcc_generated_files/LoRaWAN/radio_driver_SX1276.c"
 Parameters:    Size  Location     Type
  frequencyDev    4   17[BANK0 ] unsigned long 
 Auto vars:     Size  Location     Type
  num             4   21[BANK0 ] unsigned long 
 Return value:  Size  Location     Type
                  1    wreg      void 
 Registers used:
		wreg, status,2, status,0, cstack
 Tracked objects:
		On entry : 
		On exit  : 
		Unchanged: 
 Data sizes:     COMRAM   BANK0   BANK1   BANK2   BANK3   BANK4   BANK5   BANK6   BANK7   BANK8   BANK9  BANK10  BANK11  BANK12  BANK13
      Params:         0       4       0       0       0       0       0       0       0       0       0       0       0       0       0
      Locals:         0       4       0       0       0       0       0       0       0       0       0       0       0       0       0
      Temps:          0       0       0       0       0       0       0       0       0       0       0       0       0       0       0
      Totals:         0       8       0       0       0       0       0       0       0       0       0       0       0       0       0
Total ram usage:        8 bytes
 Hardware stack levels used:    1
 Hardware stack levels required when called:   10
 This function calls:
		_RADIO_RegisterWrite
		___lldiv
 This function is called by:
		_RADIO_WriteConfiguration
 This function uses a non-reentrant model


 *************** function _RADIO_WriteFSKBitRate *****************
 Defined at:
		line 316 in file "mcc_generated_files/LoRaWAN/radio_driver_SX1276.c"
 Parameters:    Size  Location     Type
  bitRate         4   17[BANK0 ] unsigned long 
 Auto vars:     Size  Location     Type
  num             4   21[BANK0 ] unsigned long 
 Return value:  Size  Location     Type
                  1    wreg      void 
 Registers used:
		wreg, status,2, status,0, cstack
 Tracked objects:
		On entry : 
		On exit  : 
		Unchanged: 
 Data sizes:     COMRAM   BANK0   BANK1   BANK2   BANK3   BANK4   BANK5   BANK6   BANK7   BANK8   BANK9  BANK10  BANK11  BANK12  BANK13
      Params:         0       4       0       0       0       0       0       0       0       0       0       0       0       0       0
      Locals:         0       4       0       0       0       0       0       0       0       0       0       0       0       0       0
      Temps:          0       0       0       0       0       0       0       0       0       0       0       0       0       0       0
      Totals:         0       8       0       0       0       0       0       0       0       0       0       0       0       0       0
Total ram usage:        8 bytes
 Hardware stack levels used:    1
 Hardware stack levels required when called:   10
 This function calls:
		_RADIO_RegisterWrite
		___lldiv
 This function is called by:
		_RADIO_WriteConfiguration
 This function uses a non-reentrant model


 *************** function _PrepareJoinRequestFrame *****************
 Defined at:
		line 1806 in file "mcc_generated_files/LoRaWAN/lorawan.c"
 Parameters:    Size  Location     Type
		None
 Auto vars:     Size  Location     Type
  mic             4  133[BANK0 ] unsigned long 
  iCtr            1  139[BANK0 ] unsigned char 
  bufferIndex     1  138[BANK0 ] unsigned char 
  mhdr            1  137[BANK0 ] struct .
 Return value:  Size  Location     Type
                  1    wreg      unsigned char 
 Registers used:
		wreg, fsr0l, fsr0h, fsr2l, fsr2h, status,2, status,0, tblptrl, tblptrh, tblptru, prodl, prodh, cstack
 Tracked objects:
		On entry : 
		On exit  : 
		Unchanged: 
 Data sizes:     COMRAM   BANK0   BANK1   BANK2   BANK3   BANK4   BANK5   BANK6   BANK7   BANK8   BANK9  BANK10  BANK11  BANK12  BANK13
      Params:         0       0       0       0       0       0       0       0       0       0       0       0       0       0       0
      Locals:         0       7       0       0       0       0       0       0       0       0       0       0       0       0       0
      Temps:          0       2       0       0       0       0       0       0       0       0       0       0       0       0       0
      Totals:         0       9       0       0       0       0       0       0       0       0       0       0       0       0       0
Total ram usage:        9 bytes
 Hardware stack levels used:    1
 Hardware stack levels required when called:   13
 This function calls:
		_ComputeMic
		_Random
		_memcpy
		_memset
 This function is called by:
		_LORAWAN_Join
 This function uses a non-reentrant model


 *************** function _Random *****************
 Defined at:
		line 1116 in file "mcc_generated_files/LoRaWAN/lorawan.c"
 Parameters:    Size  Location     Type
  max             2   71[BANK0 ] unsigned int 
 Auto vars:     Size  Location     Type
		None
 Return value:  Size  Location     Type
                  2   71[BANK0 ] unsigned int 
 Registers used:
		wreg, status,2, status,0, cstack
 Tracked objects:
		On entry : 
		On exit  : 
		Unchanged: 
 Data sizes:     COMRAM   BANK0   BANK1   BANK2   BANK3   BANK4   BANK5   BANK6   BANK7   BANK8   BANK9  BANK10  BANK11  BANK12  BANK13
      Params:         0       2       0       0       0       0       0       0       0       0       0       0       0       0       0
      Locals:         0       0       0       0       0       0       0       0       0       0       0       0       0       0       0
      Temps:          0       0       0       0       0       0       0       0       0       0       0       0       0       0       0
      Totals:         0       2       0       0       0       0       0       0       0       0       0       0       0       0       0
Total ram usage:        2 bytes
 Hardware stack levels used:    1
 Hardware stack levels required when called:    9
 This function calls:
		___lwmod
		_rand
 This function is called by:
		_SearchAvailableChannel
		_PrepareJoinRequestFrame
 This function uses a non-reentrant model


 *************** function _rand *****************
 Defined at:
		line 12 in file "C:\Program Files (x86)\Microchip\xc8\v1.38\sources\common\rand.c"
 Parameters:    Size  Location     Type
		None
 Auto vars:     Size  Location     Type
		None
 Return value:  Size  Location     Type
                  2   64[BANK0 ] int 
 Registers used:
		wreg, status,2, status,0, cstack
 Tracked objects:
		On entry : 
		On exit  : 
		Unchanged: 
 Data sizes:     COMRAM   BANK0   BANK1   BANK2   BANK3   BANK4   BANK5   BANK6   BANK7   BANK8   BANK9  BANK10  BANK11  BANK12  BANK13
      Params:         0       2       0       0       0       0       0       0       0       0       0       0       0       0       0
      Locals:         0       0       0       0       0       0       0       0       0       0       0       0       0       0       0
      Temps:          0       0       0       0       0       0       0       0       0       0       0       0       0       0       0
      Totals:         0       2       0       0       0       0       0       0       0       0       0       0       0       0       0
Total ram usage:        2 bytes
 Hardware stack levels used:    1
 Hardware stack levels required when called:    8
 This function calls:
		___lmul
 This function is called by:
		_Random
 This function uses a non-reentrant model


 *************** function ___lwmod *****************
 Defined at:
		line 8 in file "C:\Program Files (x86)\Microchip\xc8\v1.38\sources\common\lwmod.c"
 Parameters:    Size  Location     Type
  dividend        2   66[BANK0 ] unsigned int 
  divisor         2   68[BANK0 ] unsigned int 
 Auto vars:     Size  Location     Type
  counter         1   70[BANK0 ] unsigned char 
 Return value:  Size  Location     Type
                  2   66[BANK0 ] unsigned int 
 Registers used:
		wreg, status,2, status,0
 Tracked objects:
		On entry : 
		On exit  : 
		Unchanged: 
 Data sizes:     COMRAM   BANK0   BANK1   BANK2   BANK3   BANK4   BANK5   BANK6   BANK7   BANK8   BANK9  BANK10  BANK11  BANK12  BANK13
      Params:         0       4       0       0       0       0       0       0       0       0       0       0       0       0       0
      Locals:         0       1       0       0       0       0       0       0       0       0       0       0       0       0       0
      Temps:          0       0       0       0       0       0       0       0       0       0       0       0       0       0       0
      Totals:         0       5       0       0       0       0       0       0       0       0       0       0       0       0       0
Total ram usage:        5 bytes
 Hardware stack levels used:    1
 Hardware stack levels required when called:    7
 This function calls:
		Nothing
 This function is called by:
		_Random
 This function uses a non-reentrant model


 *************** function _ComputeMic *****************
 Defined at:
		line 2194 in file "mcc_generated_files/LoRaWAN/lorawan.c"
 Parameters:    Size  Location     Type
  key             2  122[BANK0 ] PTR unsigned char 
		 -> loRa.activationParameters(105), loRa(245), 
  buffer          2  124[BANK0 ] PTR unsigned char 
		 -> LORAWAN_RxDone@hdr(2), macBuffer(271), radioBuffer(271), 
  bufferLength    1  126[BANK0 ] unsigned char 
 Auto vars:     Size  Location     Type
  mic             4  127[BANK0 ] unsigned long 
 Return value:  Size  Location     Type
                  4  122[BANK0 ] unsigned long 
 Registers used:
		wreg, fsr0l, fsr0h, fsr2l, fsr2h, status,2, status,0, tblptrl, tblptrh, tblptru, prodl, prodh, cstack
 Tracked objects:
		On entry : 
		On exit  : 
		Unchanged: 
 Data sizes:     COMRAM   BANK0   BANK1   BANK2   BANK3   BANK4   BANK5   BANK6   BANK7   BANK8   BANK9  BANK10  BANK11  BANK12  BANK13
      Params:         0       5       0       0       0       0       0       0       0       0       0       0       0       0       0
      Locals:         0       4       0       0       0       0       0       0       0       0       0       0       0       0       0
      Temps:          0       0       0       0       0       0       0       0       0       0       0       0       0       0       0
      Totals:         0       9       0       0       0       0       0       0       0       0       0       0       0       0       0
Total ram usage:        9 bytes
 Hardware stack levels used:    1
 Hardware stack levels required when called:   12
 This function calls:
		_AESCmac
		_memcpy
 This function is called by:
		_LORAWAN_RxDone
		_PrepareJoinRequestFrame
 This function uses a non-reentrant model


 *************** function _AESCmac *****************
 Defined at:
		line 41 in file "mcc_generated_files/LoRaWAN/lorawan_aes_cmac.c"
 Parameters:    Size  Location     Type
  key             2  108[BANK0 ] PTR unsigned char 
		 -> loRa.activationParameters(105), loRa(245), 
  output          2  110[BANK0 ] PTR unsigned char 
		 -> aesBuffer(16), 
  input           2  112[BANK0 ] PTR unsigned char 
		 -> LORAWAN_RxDone@hdr(2), macBuffer(271), radioBuffer(271), 
  size            1  114[BANK0 ] unsigned char 
 Auto vars:     Size  Location     Type
  x              16   80[BANK1 ] unsigned char [16]
  y              16   64[BANK1 ] unsigned char [16]
  padded         16   48[BANK1 ] unsigned char [16]
  mLast          16   32[BANK1 ] unsigned char [16]
  k1             16   16[BANK1 ] unsigned char [16]
  k2             16    0[BANK1 ] unsigned char [16]
  ptr             2   96[BANK1 ] PTR unsigned char 
		 -> LORAWAN_RxDone@hdr(2), macBuffer(271), radioBuffer(271), NULL(0), 
  i               1  101[BANK1 ] unsigned char 
  j               1  100[BANK1 ] unsigned char 
  n               1   99[BANK1 ] unsigned char 
  flag            1   98[BANK1 ] unsigned char 
 Return value:  Size  Location     Type
                  1    wreg      void 
 Registers used:
		wreg, fsr0l, fsr0h, fsr2l, fsr2h, status,2, status,0, tblptrl, tblptrh, tblptru, prodl, prodh, cstack
 Tracked objects:
		On entry : 
		On exit  : 
		Unchanged: 
 Data sizes:     COMRAM   BANK0   BANK1   BANK2   BANK3   BANK4   BANK5   BANK6   BANK7   BANK8   BANK9  BANK10  BANK11  BANK12  BANK13
      Params:         0       7       0       0       0       0       0       0       0       0       0       0       0       0       0
      Locals:         0       0     102       0       0       0       0       0       0       0       0       0       0       0       0
      Temps:          0       7       0       0       0       0       0       0       0       0       0       0       0       0       0
      Totals:         0      14     102       0       0       0       0       0       0       0       0       0       0       0       0
Total ram usage:      116 bytes
 Hardware stack levels used:    1
 Hardware stack levels required when called:   11
 This function calls:
		_AESEncodeLoRa
		_GenerateSubkey
		_memcpy
		_memset
 This function is called by:
		_LORAWAN_RxDone
		_AssemblePacket
		_ComputeMic
 This function uses a non-reentrant model


 *************** function _GenerateSubkey *****************
 Defined at:
		line 124 in file "mcc_generated_files/LoRaWAN/lorawan_aes_cmac.c"
 Parameters:    Size  Location     Type
  key             2   68[BANK0 ] PTR unsigned char 
		 -> loRa.activationParameters(105), loRa(245), 
  k1              2   70[BANK0 ] PTR unsigned char 
		 -> AESCmac@k1(16), 
  k2              2   72[BANK0 ] PTR unsigned char 
		 -> AESCmac@k2(16), 
 Auto vars:     Size  Location     Type
  l              16   91[BANK0 ] unsigned char [16]
  const_Rb       16   75[BANK0 ] unsigned char [16]
  i               1  107[BANK0 ] unsigned char 
 Return value:  Size  Location     Type
                  1    wreg      void 
 Registers used:
		wreg, fsr0l, fsr0h, fsr2l, fsr2h, status,2, status,0, tblptrl, tblptrh, tblptru, cstack
 Tracked objects:
		On entry : 
		On exit  : 
		Unchanged: 
 Data sizes:     COMRAM   BANK0   BANK1   BANK2   BANK3   BANK4   BANK5   BANK6   BANK7   BANK8   BANK9  BANK10  BANK11  BANK12  BANK13
      Params:         0       6       0       0       0       0       0       0       0       0       0       0       0       0       0
      Locals:         0      33       0       0       0       0       0       0       0       0       0       0       0       0       0
      Temps:          0       1       0       0       0       0       0       0       0       0       0       0       0       0       0
      Totals:         0      40       0       0       0       0       0       0       0       0       0       0       0       0       0
Total ram usage:       40 bytes
 Hardware stack levels used:    1
 Hardware stack levels required when called:   10
 This function calls:
		_AESEncodeLoRa
		_FillSubKey
		_memset
 This function is called by:
		_AESCmac
 This function uses a non-reentrant model


 *************** function _FillSubKey *****************
 Defined at:
		line 167 in file "mcc_generated_files/LoRaWAN/lorawan_aes_cmac.c"
 Parameters:    Size  Location     Type
  source          2    4[BANK0 ] PTR unsigned char 
		 -> GenerateSubkey@l(16), AESCmac@k1(16), 
  key             2    6[BANK0 ] PTR unsigned char 
		 -> AESCmac@k2(16), AESCmac@k1(16), 
  size            1    8[BANK0 ] unsigned char 
 Auto vars:     Size  Location     Type
  i               1   11[BANK0 ] unsigned char 
  carry           1   10[BANK0 ] unsigned char 
 Return value:  Size  Location     Type
                  1    wreg      void 
 Registers used:
		wreg, fsr0l, fsr0h, fsr2l, fsr2h, status,2, status,0
 Tracked objects:
		On entry : 
		On exit  : 
		Unchanged: 
 Data sizes:     COMRAM   BANK0   BANK1   BANK2   BANK3   BANK4   BANK5   BANK6   BANK7   BANK8   BANK9  BANK10  BANK11  BANK12  BANK13
      Params:         0       5       0       0       0       0       0       0       0       0       0       0       0       0       0
      Locals:         0       2       0       0       0       0       0       0       0       0       0       0       0       0       0
      Temps:          0       1       0       0       0       0       0       0       0       0       0       0       0       0       0
      Totals:         0       8       0       0       0       0       0       0       0       0       0       0       0       0       0
Total ram usage:        8 bytes
 Hardware stack levels used:    1
 Hardware stack levels required when called:    7
 This function calls:
		Nothing
 This function is called by:
		_GenerateSubkey
 This function uses a non-reentrant model


 *************** function _AESEncodeLoRa *****************
 Defined at:
		line 34 in file "mcc_generated_files/LoRaWAN/lorawan_aes.c"
 Parameters:    Size  Location     Type
  block           2   48[BANK0 ] PTR unsigned char 
		 -> aesBuffer(16), LORAWAN_RxDone@hdr(2), GenerateSubkey@l(16), AESCmac@y(16), 
		 -> AESCmac@x(16), loRa.activationParameters(105), radioBuffer(271), loRa(245), 
  key             2   50[BANK0 ] PTR unsigned char 
		 -> loRa.activationParameters(105), loRa(245), 
 Auto vars:     Size  Location     Type
  useKey         16   52[BANK0 ] unsigned char [16]
 Return value:  Size  Location     Type
                  1    wreg      void 
 Registers used:
		wreg, fsr0l, fsr0h, fsr2l, fsr2h, status,2, status,0, tblptrl, tblptrh, tblptru, cstack
 Tracked objects:
		On entry : 
		On exit  : 
		Unchanged: 
 Data sizes:     COMRAM   BANK0   BANK1   BANK2   BANK3   BANK4   BANK5   BANK6   BANK7   BANK8   BANK9  BANK10  BANK11  BANK12  BANK13
      Params:         0       4       0       0       0       0       0       0       0       0       0       0       0       0       0
      Locals:         0      16       0       0       0       0       0       0       0       0       0       0       0       0       0
      Temps:          0       0       0       0       0       0       0       0       0       0       0       0       0       0       0
      Totals:         0      20       0       0       0       0       0       0       0       0       0       0       0       0       0
Total ram usage:       20 bytes
 Hardware stack levels used:    1
 Hardware stack levels required when called:    9
 This function calls:
		_AESEncode
		_memcpy
 This function is called by:
		_AESCmac
		_GenerateSubkey
		_LORAWAN_RxDone
		_ComputeSessionKeys
		_EncryptFRMPayload
 This function uses a non-reentrant model


 *************** function _AESEncode *****************
 Defined at:
		line 236 in file "mcc_generated_files/LoRaWAN/AES.c"
 Parameters:    Size  Location     Type
  block           2   10[BANK0 ] PTR unsigned char 
		 -> aesBuffer(16), LORAWAN_RxDone@hdr(2), GenerateSubkey@l(16), AESCmac@y(16), 
		 -> AESCmac@x(16), loRa.activationParameters(105), radioBuffer(271), loRa(245), 
  masterKey       1   12[BANK0 ] PTR unsigned char 
		 -> AESEncodeLoRa@useKey(16), 
 Auto vars:     Size  Location     Type
  aux3            1   46[BANK0 ] unsigned char 
  aux1            1   45[BANK0 ] unsigned char 
  aux2            1   44[BANK0 ] unsigned char 
  aux             1   43[BANK0 ] unsigned char 
  key            16   21[BANK0 ] unsigned char [16]
  i               1   47[BANK0 ] unsigned char 
 Return value:  Size  Location     Type
                  1    wreg      void 
 Registers used:
		wreg, fsr0l, fsr0h, fsr2l, fsr2h, status,2, status,0, tblptrl, tblptrh, tblptru, cstack
 Tracked objects:
		On entry : 
		On exit  : 
		Unchanged: 
 Data sizes:     COMRAM   BANK0   BANK1   BANK2   BANK3   BANK4   BANK5   BANK6   BANK7   BANK8   BANK9  BANK10  BANK11  BANK12  BANK13
      Params:         0       3       0       0       0       0       0       0       0       0       0       0       0       0       0
      Locals:         0      27       0       0       0       0       0       0       0       0       0       0       0       0       0
      Temps:          0       8       0       0       0       0       0       0       0       0       0       0       0       0       0
      Totals:         0      38       0       0       0       0       0       0       0       0       0       0       0       0       0
Total ram usage:       38 bytes
 Hardware stack levels used:    1
 Hardware stack levels required when called:    8
 This function calls:
		_EncKeySchedule
		_EncodeShiftRow
 This function is called by:
		_AESEncodeLoRa
 This function uses a non-reentrant model


 *************** function _EncodeShiftRow *****************
 Defined at:
		line 205 in file "mcc_generated_files/LoRaWAN/AES.c"
 Parameters:    Size  Location     Type
  stateTable      2    4[BANK0 ] PTR unsigned char 
		 -> aesBuffer(16), LORAWAN_RxDone@hdr(2), GenerateSubkey@l(16), AESCmac@y(16), 
		 -> AESCmac@x(16), loRa.activationParameters(105), radioBuffer(271), loRa(245), 
 Auto vars:     Size  Location     Type
  temp            1    6[BANK0 ] unsigned char 
 Return value:  Size  Location     Type
                  1    wreg      void 
 Registers used:
		wreg, fsr0l, fsr0h, fsr2l, fsr2h, status,2, status,0
 Tracked objects:
		On entry : 
		On exit  : 
		Unchanged: 
 Data sizes:     COMRAM   BANK0   BANK1   BANK2   BANK3   BANK4   BANK5   BANK6   BANK7   BANK8   BANK9  BANK10  BANK11  BANK12  BANK13
      Params:         0       2       0       0       0       0       0       0       0       0       0       0       0       0       0
      Locals:         0       1       0       0       0       0       0       0       0       0       0       0       0       0       0
      Temps:          0       0       0       0       0       0       0       0       0       0       0       0       0       0       0
      Totals:         0       3       0       0       0       0       0       0       0       0       0       0       0       0       0
Total ram usage:        3 bytes
 Hardware stack levels used:    1
 Hardware stack levels required when called:    7
 This function calls:
		Nothing
 This function is called by:
		_AESEncode
 This function uses a non-reentrant model


 *************** function _EncKeySchedule *****************
 Defined at:
		line 160 in file "mcc_generated_files/LoRaWAN/AES.c"
 Parameters:    Size  Location     Type
  key             1    4[BANK0 ] PTR unsigned char 
		 -> AESEncode@key(16), 
 Auto vars:     Size  Location     Type
		None
 Return value:  Size  Location     Type
                  1    wreg      void 
 Registers used:
		wreg, fsr2l, fsr2h, status,2, status,0, tblptrl, tblptrh, tblptru
 Tracked objects:
		On entry : 
		On exit  : 
		Unchanged: 
 Data sizes:     COMRAM   BANK0   BANK1   BANK2   BANK3   BANK4   BANK5   BANK6   BANK7   BANK8   BANK9  BANK10  BANK11  BANK12  BANK13
      Params:         0       1       0       0       0       0       0       0       0       0       0       0       0       0       0
      Locals:         0       2       0       0       0       0       0       0       0       0       0       0       0       0       0
      Temps:          0       3       0       0       0       0       0       0       0       0       0       0       0       0       0
      Totals:         0       6       0       0       0       0       0       0       0       0       0       0       0       0       0
Total ram usage:        6 bytes
 Hardware stack levels used:    1
 Hardware stack levels required when called:    7
 This function calls:
		Nothing
 This function is called by:
		_AESEncode
 This function uses a non-reentrant model


 *************** function _LORAWAN_Init *****************
 Defined at:
		line 123 in file "mcc_generated_files/LoRaWAN/lorawan_eu.c"
 Parameters:    Size  Location     Type
  RxPayload       2   76[BANK0 ] PTR FTN(PTR unsigned cha
		 -> RxDataDone(1), 
  RxJoinRespon    2   78[BANK0 ] PTR FTN(unsigned char ,)
		 -> RxJoinResponse(1), 
 Auto vars:     Size  Location     Type
		None
 Return value:  Size  Location     Type
                  1    wreg      void 
 Registers used:
		wreg, fsr0l, fsr0h, fsr2l, fsr2h, status,2, status,0, tblptrl, tblptrh, tblptru, prodl, prodh, cstack
 Tracked objects:
		On entry : 
		On exit  : 
		Unchanged: 
 Data sizes:     COMRAM   BANK0   BANK1   BANK2   BANK3   BANK4   BANK5   BANK6   BANK7   BANK8   BANK9  BANK10  BANK11  BANK12  BANK13
      Params:         0       4       0       0       0       0       0       0       0       0       0       0       0       0       0
      Locals:         0       0       0       0       0       0       0       0       0       0       0       0       0       0       0
      Temps:          0       0       0       0       0       0       0       0       0       0       0       0       0       0       0
      Totals:         0       4       0       0       0       0       0       0       0       0       0       0       0       0       0
Total ram usage:        4 bytes
 Hardware stack levels used:    1
 Hardware stack levels required when called:   13
 This function calls:
		_CreateAllSoftwareTimers
		_LORAWAN_Reset
		_RADIO_Init
		_RADIO_ReadRandom
		_SetCallbackSoftwareTimers
		_StopAllSoftwareTimers
		_srand
 This function is called by:
		_main
 This function uses a non-reentrant model


 *************** function _srand *****************
 Defined at:
		line 6 in file "C:\Program Files (x86)\Microchip\xc8\v1.38\sources\common\rand.c"
 Parameters:    Size  Location     Type
  x               2   21[BANK0 ] unsigned int 
 Auto vars:     Size  Location     Type
		None
 Return value:  Size  Location     Type
                  1    wreg      void 
 Registers used:
		status,2
 Tracked objects:
		On entry : 
		On exit  : 
		Unchanged: 
 Data sizes:     COMRAM   BANK0   BANK1   BANK2   BANK3   BANK4   BANK5   BANK6   BANK7   BANK8   BANK9  BANK10  BANK11  BANK12  BANK13
      Params:         0       2       0       0       0       0       0       0       0       0       0       0       0       0       0
      Locals:         0       0       0       0       0       0       0       0       0       0       0       0       0       0       0
      Temps:          0       0       0       0       0       0       0       0       0       0       0       0       0       0       0
      Totals:         0       2       0       0       0       0       0       0       0       0       0       0       0       0       0
Total ram usage:        2 bytes
 Hardware stack levels used:    1
 Hardware stack levels required when called:    7
 This function calls:
		Nothing
 This function is called by:
		_LORAWAN_Init
 This function uses a non-reentrant model


 *************** function _SetCallbackSoftwareTimers *****************
 Defined at:
		line 951 in file "mcc_generated_files/LoRaWAN/lorawan_eu.c"
 Parameters:    Size  Location     Type
		None
 Auto vars:     Size  Location     Type
		None
 Return value:  Size  Location     Type
                  1    wreg      void 
 Registers used:
		wreg, fsr2l, fsr2h, status,2, status,0, prodl, prodh, cstack
 Tracked objects:
		On entry : 
		On exit  : 
		Unchanged: 
 Data sizes:     COMRAM   BANK0   BANK1   BANK2   BANK3   BANK4   BANK5   BANK6   BANK7   BANK8   BANK9  BANK10  BANK11  BANK12  BANK13
      Params:         0       0       0       0       0       0       0       0       0       0       0       0       0       0       0
      Locals:         0       0       0       0       0       0       0       0       0       0       0       0       0       0       0
      Temps:          0       0       0       0       0       0       0       0       0       0       0       0       0       0       0
      Totals:         0       0       0       0       0       0       0       0       0       0       0       0       0       0       0
Total ram usage:        0 bytes
 Hardware stack levels used:    1
 Hardware stack levels required when called:    8
 This function calls:
		_SwTimerSetCallback
 This function is called by:
		_LORAWAN_Init
 This function uses a non-reentrant model


 *************** function _RADIO_ReadRandom *****************
 Defined at:
		line 1367 in file "mcc_generated_files/LoRaWAN/radio_driver_SX1276.c"
 Parameters:    Size  Location     Type
		None
 Auto vars:     Size  Location     Type
  retVal          2   18[BANK0 ] unsigned int 
  i               1   20[BANK0 ] unsigned char 
 Return value:  Size  Location     Type
                  2   16[BANK0 ] unsigned int 
 Registers used:
		wreg, status,2, status,0, cstack
 Tracked objects:
		On entry : 
		On exit  : 
		Unchanged: 
 Data sizes:     COMRAM   BANK0   BANK1   BANK2   BANK3   BANK4   BANK5   BANK6   BANK7   BANK8   BANK9  BANK10  BANK11  BANK12  BANK13
      Params:         0       2       0       0       0       0       0       0       0       0       0       0       0       0       0
      Locals:         0       3       0       0       0       0       0       0       0       0       0       0       0       0       0
      Temps:          0       0       0       0       0       0       0       0       0       0       0       0       0       0       0
      Totals:         0       5       0       0       0       0       0       0       0       0       0       0       0       0       0
Total ram usage:        5 bytes
 Hardware stack levels used:    1
 Hardware stack levels required when called:   11
 This function calls:
		_RADIO_RegisterRead
		_RADIO_RegisterWrite
		_RADIO_WriteMode
		_SystemBlockingWaitMs
 This function is called by:
		_LORAWAN_Init
 This function uses a non-reentrant model


 *************** function _LORAWAN_Reset *****************
 Defined at:
		line 148 in file "mcc_generated_files/LoRaWAN/lorawan_eu.c"
 Parameters:    Size  Location     Type
  ismBandNew      1    wreg     enum E17221
 Auto vars:     Size  Location     Type
  ismBandNew      1   75[BANK0 ] enum E17221
 Return value:  Size  Location     Type
                  1    wreg      void 
 Registers used:
		wreg, fsr0l, fsr0h, fsr2l, fsr2h, status,2, status,0, tblptrl, tblptrh, tblptru, prodl, prodh, cstack
 Tracked objects:
		On entry : 
		On exit  : 
		Unchanged: 
 Data sizes:     COMRAM   BANK0   BANK1   BANK2   BANK3   BANK4   BANK5   BANK6   BANK7   BANK8   BANK9  BANK10  BANK11  BANK12  BANK13
      Params:         0       0       0       0       0       0       0       0       0       0       0       0       0       0       0
      Locals:         0       1       0       0       0       0       0       0       0       0       0       0       0       0       0
      Temps:          0       0       0       0       0       0       0       0       0       0       0       0       0       0       0
      Totals:         0       1       0       0       0       0       0       0       0       0       0       0       0       0       0
Total ram usage:        1 bytes
 Hardware stack levels used:    1
 Hardware stack levels required when called:   12
 This function calls:
		_InitDefault433Channels
		_InitDefault868Channels
		_LORAWAN_LinkCheckConfigure
		_RADIO_Init
		_RADIO_SetLoRaSyncWord
		_StopAllSoftwareTimers
		_UpdateMinMaxChDataRate
		_memset
 This function is called by:
		_LORAWAN_Init
 This function uses a non-reentrant model


 *************** function _UpdateMinMaxChDataRate *****************
 Defined at:
		line 1063 in file "mcc_generated_files/LoRaWAN/lorawan.c"
 Parameters:    Size  Location     Type
		None
 Auto vars:     Size  Location     Type
  i               1    5[BANK0 ] unsigned char 
 Return value:  Size  Location     Type
                  1    wreg      void 
 Registers used:
		wreg, fsr2l, fsr2h, status,2, status,0, prodl, prodh
 Tracked objects:
		On entry : 
		On exit  : 
		Unchanged: 
 Data sizes:     COMRAM   BANK0   BANK1   BANK2   BANK3   BANK4   BANK5   BANK6   BANK7   BANK8   BANK9  BANK10  BANK11  BANK12  BANK13
      Params:         0       0       0       0       0       0       0       0       0       0       0       0       0       0       0
      Locals:         0       1       0       0       0       0       0       0       0       0       0       0       0       0       0
      Temps:          0       1       0       0       0       0       0       0       0       0       0       0       0       0       0
      Totals:         0       2       0       0       0       0       0       0       0       0       0       0       0       0       0
Total ram usage:        2 bytes
 Hardware stack levels used:    1
 Hardware stack levels required when called:    7
 This function calls:
		Nothing
 This function is called by:
		_LORAWAN_Reset
 This function uses a non-reentrant model


 *************** function _StopAllSoftwareTimers *****************
 Defined at:
		line 965 in file "mcc_generated_files/LoRaWAN/lorawan_eu.c"
 Parameters:    Size  Location     Type
		None
 Auto vars:     Size  Location     Type
		None
 Return value:  Size  Location     Type
                  1    wreg      void 
 Registers used:
		wreg, fsr2l, fsr2h, status,2, status,0, prodl, prodh, cstack
 Tracked objects:
		On entry : 
		On exit  : 
		Unchanged: 
 Data sizes:     COMRAM   BANK0   BANK1   BANK2   BANK3   BANK4   BANK5   BANK6   BANK7   BANK8   BANK9  BANK10  BANK11  BANK12  BANK13
      Params:         0       0       0       0       0       0       0       0       0       0       0       0       0       0       0
      Locals:         0       0       0       0       0       0       0       0       0       0       0       0       0       0       0
      Temps:          0       0       0       0       0       0       0       0       0       0       0       0       0       0       0
      Totals:         0       0       0       0       0       0       0       0       0       0       0       0       0       0       0
Total ram usage:        0 bytes
 Hardware stack levels used:    1
 Hardware stack levels required when called:    8
 This function calls:
		_SwTimerStop
 This function is called by:
		_LORAWAN_Init
		_LORAWAN_Reset
 This function uses a non-reentrant model


 *************** function _RADIO_SetLoRaSyncWord *****************
 Defined at:
		line 522 in file "mcc_generated_files/LoRaWAN/radio_driver_SX1276.c"
 Parameters:    Size  Location     Type
  syncWord        1    wreg     unsigned char 
 Auto vars:     Size  Location     Type
  syncWord        1    4[BANK0 ] unsigned char 
 Return value:  Size  Location     Type
                  1    wreg      void 
 Registers used:
		wreg
 Tracked objects:
		On entry : 
		On exit  : 
		Unchanged: 
 Data sizes:     COMRAM   BANK0   BANK1   BANK2   BANK3   BANK4   BANK5   BANK6   BANK7   BANK8   BANK9  BANK10  BANK11  BANK12  BANK13
      Params:         0       0       0       0       0       0       0       0       0       0       0       0       0       0       0
      Locals:         0       1       0       0       0       0       0       0       0       0       0       0       0       0       0
      Temps:          0       0       0       0       0       0       0       0       0       0       0       0       0       0       0
      Totals:         0       1       0       0       0       0       0       0       0       0       0       0       0       0       0
Total ram usage:        1 bytes
 Hardware stack levels used:    1
 Hardware stack levels required when called:    7
 This function calls:
		Nothing
 This function is called by:
		_LORAWAN_Reset
		_ConfigureRadio
 This function uses a non-reentrant model


 *************** function _RADIO_Init *****************
 Defined at:
		line 422 in file "mcc_generated_files/LoRaWAN/radio_driver_SX1276.c"
 Parameters:    Size  Location     Type
  radioBuffer     2   29[BANK0 ] PTR unsigned char 
		 -> radioBuffer(271), 
  frequency       4   31[BANK0 ] unsigned long 
 Auto vars:     Size  Location     Type
		None
 Return value:  Size  Location     Type
                  1    wreg      void 
 Registers used:
		wreg, fsr2l, fsr2h, status,2, status,0, prodl, prodh, cstack
 Tracked objects:
		On entry : 
		On exit  : 
		Unchanged: 
 Data sizes:     COMRAM   BANK0   BANK1   BANK2   BANK3   BANK4   BANK5   BANK6   BANK7   BANK8   BANK9  BANK10  BANK11  BANK12  BANK13
      Params:         0       6       0       0       0       0       0       0       0       0       0       0       0       0       0
      Locals:         0       0       0       0       0       0       0       0       0       0       0       0       0       0       0
      Temps:          0       1       0       0       0       0       0       0       0       0       0       0       0       0       0
      Totals:         0       7       0       0       0       0       0       0       0       0       0       0       0       0       0
Total ram usage:        7 bytes
 Hardware stack levels used:    1
 Hardware stack levels required when called:   11
 This function calls:
		_RADIO_RegisterRead
		_RADIO_RegisterWrite
		_RADIO_Reset
		_RADIO_WriteFrequency
		_RADIO_WriteMode
		_SwTimerCreate
		_SwTimerSetCallback
		_SwTimerStop
 This function is called by:
		_LORAWAN_Init
		_LORAWAN_Reset
 This function uses a non-reentrant model


 *************** function _SwTimerSetCallback *****************
 Defined at:
		line 180 in file "mcc_generated_files/LoRaWAN/sw_timer.c"
 Parameters:    Size  Location     Type
  timerId         1    wreg     unsigned char 
  callback        2    4[BANK0 ] PTR FTN(unsigned char ,)
		 -> DutyCycleCallback(1), UpdateJoinSuccessState(1), UnconfirmedTransmissionCallback(1), AutomaticReplyCallback(1), 
		 -> AckRetransmissionCallback(1), LORAWAN_LinkCheckCallback(1), LORAWAN_ReceiveWindow1Callback(1), LORAWAN_ReceiveWindow2Callback(1), 
		 -> RADIO_WatchdogTimeout(1), RADIO_RxFSKTimeout(1), 
  callbackPara    1    6[BANK0 ] unsigned char 
 Auto vars:     Size  Location     Type
  timerId         1    7[BANK0 ] unsigned char 
 Return value:  Size  Location     Type
                  1    wreg      void 
 Registers used:
		wreg, fsr2l, fsr2h, status,2, status,0, prodl, prodh
 Tracked objects:
		On entry : 
		On exit  : 
		Unchanged: 
 Data sizes:     COMRAM   BANK0   BANK1   BANK2   BANK3   BANK4   BANK5   BANK6   BANK7   BANK8   BANK9  BANK10  BANK11  BANK12  BANK13
      Params:         0       3       0       0       0       0       0       0       0       0       0       0       0       0       0
      Locals:         0       1       0       0       0       0       0       0       0       0       0       0       0       0       0
      Temps:          0       0       0       0       0       0       0       0       0       0       0       0       0       0       0
      Totals:         0       4       0       0       0       0       0       0       0       0       0       0       0       0       0
Total ram usage:        4 bytes
 Hardware stack levels used:    1
 Hardware stack levels required when called:    7
 This function calls:
		Nothing
 This function is called by:
		_RADIO_Init
		_SetCallbackSoftwareTimers
 This function uses a non-reentrant model


 *************** function _RADIO_WriteMode *****************
 Defined at:
		line 147 in file "mcc_generated_files/LoRaWAN/radio_driver_SX1276.c"
 Parameters:    Size  Location     Type
  newMode         1    wreg     enum E17657
  newModulatio    1    9[BANK0 ] enum E16925
  blocking        1   10[BANK0 ] unsigned char 
 Auto vars:     Size  Location     Type
  newMode         1   14[BANK0 ] enum E17657
  opMode          1   15[BANK0 ] unsigned char 
  currentMode     1   13[BANK0 ] enum E17657
  dioMapping      1   12[BANK0 ] unsigned char 
  currentModul    1   11[BANK0 ] enum E16925
 Return value:  Size  Location     Type
                  1    wreg      void 
 Registers used:
		wreg, status,2, status,0, cstack
 Tracked objects:
		On entry : 
		On exit  : 
		Unchanged: 
 Data sizes:     COMRAM   BANK0   BANK1   BANK2   BANK3   BANK4   BANK5   BANK6   BANK7   BANK8   BANK9  BANK10  BANK11  BANK12  BANK13
      Params:         0       2       0       0       0       0       0       0       0       0       0       0       0       0       0
      Locals:         0       5       0       0       0       0       0       0       0       0       0       0       0       0       0
      Temps:          0       0       0       0       0       0       0       0       0       0       0       0       0       0       0
      Totals:         0       7       0       0       0       0       0       0       0       0       0       0       0       0       0
Total ram usage:        7 bytes
 Hardware stack levels used:    1
 Hardware stack levels required when called:   10
 This function calls:
		_HALDIO5PinValue
		_RADIO_RegisterRead
		_RADIO_RegisterWrite
		_SystemBlockingWaitMs
 This function is called by:
		_RADIO_Init
		_RADIO_WriteConfiguration
		_RADIO_Transmit
		_RADIO_ReceiveStart
		_RADIO_ReceiveStop
		_RADIO_RxDone
		_RADIO_FSKPayloadReady
		_RADIO_RxTimeout
		_RADIO_TxDone
		_RADIO_FSKPacketSent
		_RADIO_ReadRandom
		_RADIO_RxFSKTimeout
		_RADIO_WatchdogTimeout
 This function uses a non-reentrant model


 *************** function _RADIO_RegisterRead *****************
 Defined at:
		line 134 in file "mcc_generated_files/LoRaWAN/radio_driver_SX1276.c"
 Parameters:    Size  Location     Type
  reg             1    wreg     unsigned char 
 Auto vars:     Size  Location     Type
  reg             1    6[BANK0 ] unsigned char 
  readValue       1    7[BANK0 ] unsigned char 
 Return value:  Size  Location     Type
                  1    wreg      unsigned char 
 Registers used:
		wreg, status,2, status,0, cstack
 Tracked objects:
		On entry : 
		On exit  : 
		Unchanged: 
 Data sizes:     COMRAM   BANK0   BANK1   BANK2   BANK3   BANK4   BANK5   BANK6   BANK7   BANK8   BANK9  BANK10  BANK11  BANK12  BANK13
      Params:         0       0       0       0       0       0       0       0       0       0       0       0       0       0       0
      Locals:         0       2       0       0       0       0       0       0       0       0       0       0       0       0       0
      Temps:          0       0       0       0       0       0       0       0       0       0       0       0       0       0       0
      Totals:         0       2       0       0       0       0       0       0       0       0       0       0       0       0       0
Total ram usage:        2 bytes
 Hardware stack levels used:    1
 Hardware stack levels required when called:    9
 This function calls:
		_HALSPICSAssert
		_HALSPICSDeassert
		_HALSPISend
 This function is called by:
		_RADIO_WriteMode
		_RADIO_WritePower
		_RADIO_Init
		_RADIO_WriteConfiguration
		_RADIO_Transmit
		_RADIO_RxDone
		_RADIO_FSKPayloadReady
		_RADIO_FSKPacketSent
		_RADIO_FHSSChangeChannel
		_RADIO_DIO0
		_RADIO_DIO1
		_RADIO_DIO2
		_RADIO_DIO3
		_RADIO_DIO4
		_RADIO_DIO5
		_RADIO_ReadRandom
		_RADIO_RxFSKTimeout
 This function uses a non-reentrant model


 *************** function _HALDIO5PinValue *****************
 Defined at:
		line 95 in file "mcc_generated_files/LoRaWAN/radio_driver_hal.c"
 Parameters:    Size  Location     Type
		None
 Auto vars:     Size  Location     Type
		None
 Return value:  Size  Location     Type
                  1    wreg      unsigned char 
 Registers used:
		wreg
 Tracked objects:
		On entry : 
		On exit  : 
		Unchanged: 
 Data sizes:     COMRAM   BANK0   BANK1   BANK2   BANK3   BANK4   BANK5   BANK6   BANK7   BANK8   BANK9  BANK10  BANK11  BANK12  BANK13
      Params:         0       0       0       0       0       0       0       0       0       0       0       0       0       0       0
      Locals:         0       0       0       0       0       0       0       0       0       0       0       0       0       0       0
      Temps:          0       0       0       0       0       0       0       0       0       0       0       0       0       0       0
      Totals:         0       0       0       0       0       0       0       0       0       0       0       0       0       0       0
Total ram usage:        0 bytes
 Hardware stack levels used:    1
 Hardware stack levels required when called:    7
 This function calls:
		Nothing
 This function is called by:
		_RADIO_WriteMode
 This function uses a non-reentrant model


 *************** function _RADIO_WriteFrequency *****************
 Defined at:
		line 262 in file "mcc_generated_files/LoRaWAN/radio_driver_SX1276.c"
 Parameters:    Size  Location     Type
  frequency       4   17[BANK0 ] unsigned long 
 Auto vars:     Size  Location     Type
  num             4   25[BANK0 ] unsigned long 
  num_mod         4   21[BANK0 ] unsigned long 
 Return value:  Size  Location     Type
                  1    wreg      void 
 Registers used:
		wreg, status,2, status,0, cstack
 Tracked objects:
		On entry : 
		On exit  : 
		Unchanged: 
 Data sizes:     COMRAM   BANK0   BANK1   BANK2   BANK3   BANK4   BANK5   BANK6   BANK7   BANK8   BANK9  BANK10  BANK11  BANK12  BANK13
      Params:         0       4       0       0       0       0       0       0       0       0       0       0       0       0       0
      Locals:         0       8       0       0       0       0       0       0       0       0       0       0       0       0       0
      Temps:          0       0       0       0       0       0       0       0       0       0       0       0       0       0       0
      Totals:         0      12       0       0       0       0       0       0       0       0       0       0       0       0       0
Total ram usage:       12 bytes
 Hardware stack levels used:    1
 Hardware stack levels required when called:   10
 This function calls:
		_RADIO_RegisterWrite
		___lldiv
		___llmod
 This function is called by:
		_RADIO_Init
		_RADIO_WriteConfiguration
		_RADIO_FHSSChangeChannel
 This function uses a non-reentrant model


 *************** function ___llmod *****************
 Defined at:
		line 8 in file "C:\Program Files (x86)\Microchip\xc8\v1.38\sources\common\llmod.c"
 Parameters:    Size  Location     Type
  dividend        4    4[BANK0 ] unsigned long 
  divisor         4    8[BANK0 ] unsigned long 
 Auto vars:     Size  Location     Type
  counter         1   12[BANK0 ] unsigned char 
 Return value:  Size  Location     Type
                  4    4[BANK0 ] unsigned long 
 Registers used:
		wreg, status,2, status,0
 Tracked objects:
		On entry : 
		On exit  : 
		Unchanged: 
 Data sizes:     COMRAM   BANK0   BANK1   BANK2   BANK3   BANK4   BANK5   BANK6   BANK7   BANK8   BANK9  BANK10  BANK11  BANK12  BANK13
      Params:         0       8       0       0       0       0       0       0       0       0       0       0       0       0       0
      Locals:         0       1       0       0       0       0       0       0       0       0       0       0       0       0       0
      Temps:          0       0       0       0       0       0       0       0       0       0       0       0       0       0       0
      Totals:         0       9       0       0       0       0       0       0       0       0       0       0       0       0       0
Total ram usage:        9 bytes
 Hardware stack levels used:    1
 Hardware stack levels required when called:    7
 This function calls:
		Nothing
 This function is called by:
		_RADIO_WriteFrequency
 This function uses a non-reentrant model


 *************** function _RADIO_RegisterWrite *****************
 Defined at:
		line 126 in file "mcc_generated_files/LoRaWAN/radio_driver_SX1276.c"
 Parameters:    Size  Location     Type
  reg             1    wreg     unsigned char 
  value           1    6[BANK0 ] unsigned char 
 Auto vars:     Size  Location     Type
  reg             1    7[BANK0 ] unsigned char 
 Return value:  Size  Location     Type
                  1    wreg      void 
 Registers used:
		wreg, status,2, status,0, cstack
 Tracked objects:
		On entry : 
		On exit  : 
		Unchanged: 
 Data sizes:     COMRAM   BANK0   BANK1   BANK2   BANK3   BANK4   BANK5   BANK6   BANK7   BANK8   BANK9  BANK10  BANK11  BANK12  BANK13
      Params:         0       1       0       0       0       0       0       0       0       0       0       0       0       0       0
      Locals:         0       1       0       0       0       0       0       0       0       0       0       0       0       0       0
      Temps:          0       0       0       0       0       0       0       0       0       0       0       0       0       0       0
      Totals:         0       2       0       0       0       0       0       0       0       0       0       0       0       0       0
Total ram usage:        2 bytes
 Hardware stack levels used:    1
 Hardware stack levels required when called:    9
 This function calls:
		_HALSPICSAssert
		_HALSPICSDeassert
		_HALSPISend
 This function is called by:
		_RADIO_WriteMode
		_RADIO_WriteFrequency
		_RADIO_WriteFSKFrequencyDeviation
		_RADIO_WriteFSKBitRate
		_RADIO_WritePower
		_RADIO_Init
		_RADIO_WriteConfiguration
		_RADIO_Transmit
		_RADIO_ReceiveStart
		_RADIO_RxDone
		_RADIO_RxTimeout
		_RADIO_TxDone
		_RADIO_UnhandledInterrupt
		_RADIO_FHSSChangeChannel
		_RADIO_ReadRandom
 This function uses a non-reentrant model


 *************** function _HALSPISend *****************
 Defined at:
		line 73 in file "mcc_generated_files/LoRaWAN/radio_driver_hal.c"
 Parameters:    Size  Location     Type
  data            1    wreg     unsigned char 
 Auto vars:     Size  Location     Type
  data            1    5[BANK0 ] unsigned char 
 Return value:  Size  Location     Type
                  1    wreg      unsigned char 
 Registers used:
		wreg, status,2, cstack
 Tracked objects:
		On entry : 
		On exit  : 
		Unchanged: 
 Data sizes:     COMRAM   BANK0   BANK1   BANK2   BANK3   BANK4   BANK5   BANK6   BANK7   BANK8   BANK9  BANK10  BANK11  BANK12  BANK13
      Params:         0       0       0       0       0       0       0       0       0       0       0       0       0       0       0
      Locals:         0       1       0       0       0       0       0       0       0       0       0       0       0       0       0
      Temps:          0       0       0       0       0       0       0       0       0       0       0       0       0       0       0
      Totals:         0       1       0       0       0       0       0       0       0       0       0       0       0       0       0
Total ram usage:        1 bytes
 Hardware stack levels used:    1
 Hardware stack levels required when called:    8
 This function calls:
		_SPI2_Exchange8bit
 This function is called by:
		_RADIO_RegisterWrite
		_RADIO_RegisterRead
		_RADIO_Transmit
		_RADIO_RxDone
		_RADIO_FSKPayloadReady
 This function uses a non-reentrant model


 *************** function _SPI2_Exchange8bit *****************
 Defined at:
		line 77 in file "mcc_generated_files/spi2.c"
 Parameters:    Size  Location     Type
  data            1    wreg     unsigned char 
 Auto vars:     Size  Location     Type
  data            1    4[BANK0 ] unsigned char 
 Return value:  Size  Location     Type
                  1    wreg      unsigned char 
 Registers used:
		wreg, status,2
 Tracked objects:
		On entry : 
		On exit  : 
		Unchanged: 
 Data sizes:     COMRAM   BANK0   BANK1   BANK2   BANK3   BANK4   BANK5   BANK6   BANK7   BANK8   BANK9  BANK10  BANK11  BANK12  BANK13
      Params:         0       0       0       0       0       0       0       0       0       0       0       0       0       0       0
      Locals:         0       1       0       0       0       0       0       0       0       0       0       0       0       0       0
      Temps:          0       0       0       0       0       0       0       0       0       0       0       0       0       0       0
      Totals:         0       1       0       0       0       0       0       0       0       0       0       0       0       0       0
Total ram usage:        1 bytes
 Hardware stack levels used:    1
 Hardware stack levels required when called:    7
 This function calls:
		Nothing
 This function is called by:
		_HALSPISend
 This function uses a non-reentrant model


 *************** function _HALSPICSDeassert *****************
 Defined at:
		line 68 in file "mcc_generated_files/LoRaWAN/radio_driver_hal.c"
 Parameters:    Size  Location     Type
		None
 Auto vars:     Size  Location     Type
		None
 Return value:  Size  Location     Type
                  1    wreg      void 
 Registers used:
		None
 Tracked objects:
		On entry : 
		On exit  : 
		Unchanged: 
 Data sizes:     COMRAM   BANK0   BANK1   BANK2   BANK3   BANK4   BANK5   BANK6   BANK7   BANK8   BANK9  BANK10  BANK11  BANK12  BANK13
      Params:         0       0       0       0       0       0       0       0       0       0       0       0       0       0       0
      Locals:         0       0       0       0       0       0       0       0       0       0       0       0       0       0       0
      Temps:          0       0       0       0       0       0       0       0       0       0       0       0       0       0       0
      Totals:         0       0       0       0       0       0       0       0       0       0       0       0       0       0       0
Total ram usage:        0 bytes
 Hardware stack levels used:    1
 Hardware stack levels required when called:    7
 This function calls:
		Nothing
 This function is called by:
		_RADIO_RegisterWrite
		_RADIO_RegisterRead
		_RADIO_Transmit
		_RADIO_RxDone
		_RADIO_FSKPayloadReady
 This function uses a non-reentrant model


 *************** function _HALSPICSAssert *****************
 Defined at:
		line 63 in file "mcc_generated_files/LoRaWAN/radio_driver_hal.c"
 Parameters:    Size  Location     Type
		None
 Auto vars:     Size  Location     Type
		None
 Return value:  Size  Location     Type
                  1    wreg      void 
 Registers used:
		None
 Tracked objects:
		On entry : 
		On exit  : 
		Unchanged: 
 Data sizes:     COMRAM   BANK0   BANK1   BANK2   BANK3   BANK4   BANK5   BANK6   BANK7   BANK8   BANK9  BANK10  BANK11  BANK12  BANK13
      Params:         0       0       0       0       0       0       0       0       0       0       0       0       0       0       0
      Locals:         0       0       0       0       0       0       0       0       0       0       0       0       0       0       0
      Temps:          0       0       0       0       0       0       0       0       0       0       0       0       0       0       0
      Totals:         0       0       0       0       0       0       0       0       0       0       0       0       0       0       0
Total ram usage:        0 bytes
 Hardware stack levels used:    1
 Hardware stack levels required when called:    7
 This function calls:
		Nothing
 This function is called by:
		_RADIO_RegisterWrite
		_RADIO_RegisterRead
		_RADIO_Transmit
		_RADIO_RxDone
		_RADIO_FSKPayloadReady
 This function uses a non-reentrant model


 *************** function _RADIO_Reset *****************
 Defined at:
		line 249 in file "mcc_generated_files/LoRaWAN/radio_driver_SX1276.c"
 Parameters:    Size  Location     Type
		None
 Auto vars:     Size  Location     Type
		None
 Return value:  Size  Location     Type
                  1    wreg      void 
 Registers used:
		wreg, status,2, status,0, cstack
 Tracked objects:
		On entry : 
		On exit  : 
		Unchanged: 
 Data sizes:     COMRAM   BANK0   BANK1   BANK2   BANK3   BANK4   BANK5   BANK6   BANK7   BANK8   BANK9  BANK10  BANK11  BANK12  BANK13
      Params:         0       0       0       0       0       0       0       0       0       0       0       0       0       0       0
      Locals:         0       0       0       0       0       0       0       0       0       0       0       0       0       0       0
      Temps:          0       0       0       0       0       0       0       0       0       0       0       0       0       0       0
      Totals:         0       0       0       0       0       0       0       0       0       0       0       0       0       0       0
Total ram usage:        0 bytes
 Hardware stack levels used:    1
 Hardware stack levels required when called:    8
 This function calls:
		_HALResetPinMakeInput
		_HALResetPinMakeOutput
		_HALResetPinOutputValue
		_SystemBlockingWaitMs
 This function is called by:
		_RADIO_Init
 This function uses a non-reentrant model


 *************** function _SystemBlockingWaitMs *****************
 Defined at:
		line 145 in file "mcc_generated_files/LoRaWAN/sw_timer.c"
 Parameters:    Size  Location     Type
  ms              4    4[BANK0 ] unsigned long 
 Auto vars:     Size  Location     Type
		None
 Return value:  Size  Location     Type
                  1    wreg      void 
 Registers used:
		wreg, status,2, status,0
 Tracked objects:
		On entry : 
		On exit  : 
		Unchanged: 
 Data sizes:     COMRAM   BANK0   BANK1   BANK2   BANK3   BANK4   BANK5   BANK6   BANK7   BANK8   BANK9  BANK10  BANK11  BANK12  BANK13
      Params:         0       4       0       0       0       0       0       0       0       0       0       0       0       0       0
      Locals:         0       0       0       0       0       0       0       0       0       0       0       0       0       0       0
      Temps:          0       1       0       0       0       0       0       0       0       0       0       0       0       0       0
      Totals:         0       5       0       0       0       0       0       0       0       0       0       0       0       0       0
Total ram usage:        5 bytes
 Hardware stack levels used:    1
 Hardware stack levels required when called:    7
 This function calls:
		Nothing
 This function is called by:
		_RADIO_WriteMode
		_RADIO_Reset
		_RADIO_ReadRandom
 This function uses a non-reentrant model


 *************** function _HALResetPinOutputValue *****************
 Defined at:
		line 55 in file "mcc_generated_files/LoRaWAN/radio_driver_hal.c"
 Parameters:    Size  Location     Type
  value           1    wreg     unsigned char 
 Auto vars:     Size  Location     Type
  value           1    4[BANK0 ] unsigned char 
 Return value:  Size  Location     Type
                  1    wreg      void 
 Registers used:
		wreg, status,2, status,0
 Tracked objects:
		On entry : 
		On exit  : 
		Unchanged: 
 Data sizes:     COMRAM   BANK0   BANK1   BANK2   BANK3   BANK4   BANK5   BANK6   BANK7   BANK8   BANK9  BANK10  BANK11  BANK12  BANK13
      Params:         0       0       0       0       0       0       0       0       0       0       0       0       0       0       0
      Locals:         0       1       0       0       0       0       0       0       0       0       0       0       0       0       0
      Temps:          0       0       0       0       0       0       0       0       0       0       0       0       0       0       0
      Totals:         0       1       0       0       0       0       0       0       0       0       0       0       0       0       0
Total ram usage:        1 bytes
 Hardware stack levels used:    1
 Hardware stack levels required when called:    7
 This function calls:
		Nothing
 This function is called by:
		_RADIO_Reset
 This function uses a non-reentrant model


 *************** function _HALResetPinMakeOutput *****************
 Defined at:
		line 45 in file "mcc_generated_files/LoRaWAN/radio_driver_hal.c"
 Parameters:    Size  Location     Type
		None
 Auto vars:     Size  Location     Type
		None
 Return value:  Size  Location     Type
                  1    wreg      void 
 Registers used:
		None
 Tracked objects:
		On entry : 
		On exit  : 
		Unchanged: 
 Data sizes:     COMRAM   BANK0   BANK1   BANK2   BANK3   BANK4   BANK5   BANK6   BANK7   BANK8   BANK9  BANK10  BANK11  BANK12  BANK13
      Params:         0       0       0       0       0       0       0       0       0       0       0       0       0       0       0
      Locals:         0       0       0       0       0       0       0       0       0       0       0       0       0       0       0
      Temps:          0       0       0       0       0       0       0       0       0       0       0       0       0       0       0
      Totals:         0       0       0       0       0       0       0       0       0       0       0       0       0       0       0
Total ram usage:        0 bytes
 Hardware stack levels used:    1
 Hardware stack levels required when called:    7
 This function calls:
		Nothing
 This function is called by:
		_RADIO_Reset
 This function uses a non-reentrant model


 *************** function _HALResetPinMakeInput *****************
 Defined at:
		line 50 in file "mcc_generated_files/LoRaWAN/radio_driver_hal.c"
 Parameters:    Size  Location     Type
		None
 Auto vars:     Size  Location     Type
		None
 Return value:  Size  Location     Type
                  1    wreg      void 
 Registers used:
		None
 Tracked objects:
		On entry : 
		On exit  : 
		Unchanged: 
 Data sizes:     COMRAM   BANK0   BANK1   BANK2   BANK3   BANK4   BANK5   BANK6   BANK7   BANK8   BANK9  BANK10  BANK11  BANK12  BANK13
      Params:         0       0       0       0       0       0       0       0       0       0       0       0       0       0       0
      Locals:         0       0       0       0       0       0       0       0       0       0       0       0       0       0       0
      Temps:          0       0       0       0       0       0       0       0       0       0       0       0       0       0       0
      Totals:         0       0       0       0       0       0       0       0       0       0       0       0       0       0       0
Total ram usage:        0 bytes
 Hardware stack levels used:    1
 Hardware stack levels required when called:    7
 This function calls:
		Nothing
 This function is called by:
		_RADIO_Reset
 This function uses a non-reentrant model


 *************** function _LORAWAN_LinkCheckConfigure *****************
 Defined at:
		line 755 in file "mcc_generated_files/LoRaWAN/lorawan.c"
 Parameters:    Size  Location     Type
  period          2   64[BANK0 ] unsigned int 
 Auto vars:     Size  Location     Type
  iCtr            1   74[BANK0 ] unsigned char 
 Return value:  Size  Location     Type
                  1    wreg      void 
 Registers used:
		wreg, fsr2l, fsr2h, status,2, status,0, prodl, prodh, cstack
 Tracked objects:
		On entry : 
		On exit  : 
		Unchanged: 
 Data sizes:     COMRAM   BANK0   BANK1   BANK2   BANK3   BANK4   BANK5   BANK6   BANK7   BANK8   BANK9  BANK10  BANK11  BANK12  BANK13
      Params:         0       2       0       0       0       0       0       0       0       0       0       0       0       0       0
      Locals:         0       5       0       0       0       0       0       0       0       0       0       0       0       0       0
      Temps:          0       4       0       0       0       0       0       0       0       0       0       0       0       0       0
      Totals:         0      11       0       0       0       0       0       0       0       0       0       0       0       0       0
Total ram usage:       11 bytes
 Hardware stack levels used:    1
 Hardware stack levels required when called:   11
 This function calls:
		_SwTimerSetTimeout
		_SwTimerStart
		_SwTimerStop
		___lldiv
		___lmul
 This function is called by:
		_LORAWAN_Reset
 This function uses a non-reentrant model


 *************** function ___lmul *****************
 Defined at:
		line 15 in file "C:\Program Files (x86)\Microchip\xc8\v1.38\sources\common\Umul32.c"
 Parameters:    Size  Location     Type
  multiplier      4   52[BANK0 ] unsigned long 
  multiplicand    4   56[BANK0 ] unsigned long 
 Auto vars:     Size  Location     Type
  product         4   60[BANK0 ] unsigned long 
 Return value:  Size  Location     Type
                  4   52[BANK0 ] unsigned long 
 Registers used:
		wreg, status,2, status,0
 Tracked objects:
		On entry : 
		On exit  : 
		Unchanged: 
 Data sizes:     COMRAM   BANK0   BANK1   BANK2   BANK3   BANK4   BANK5   BANK6   BANK7   BANK8   BANK9  BANK10  BANK11  BANK12  BANK13
      Params:         0       8       0       0       0       0       0       0       0       0       0       0       0       0       0
      Locals:         0       4       0       0       0       0       0       0       0       0       0       0       0       0       0
      Temps:          0       0       0       0       0       0       0       0       0       0       0       0       0       0       0
      Totals:         0      12       0       0       0       0       0       0       0       0       0       0       0       0       0
Total ram usage:       12 bytes
 Hardware stack levels used:    1
 Hardware stack levels required when called:    7
 This function calls:
		Nothing
 This function is called by:
		_RADIO_WriteConfiguration
		_RADIO_TxDone
		_RADIO_FSKPacketSent
		_LORAWAN_TxDone
		_ExecuteNewChannel
		_ExecuteRxParamSetupReq
		_UpdateCfList
		_LORAWAN_LinkCheckConfigure
		_rand
 This function uses a non-reentrant model


 *************** function ___lldiv *****************
 Defined at:
		line 8 in file "C:\Program Files (x86)\Microchip\xc8\v1.38\sources\common\lldiv.c"
 Parameters:    Size  Location     Type
  dividend        4    4[BANK0 ] unsigned long 
  divisor         4    8[BANK0 ] unsigned long 
 Auto vars:     Size  Location     Type
  quotient        4   12[BANK0 ] unsigned long 
  counter         1   16[BANK0 ] unsigned char 
 Return value:  Size  Location     Type
                  4    4[BANK0 ] unsigned long 
 Registers used:
		wreg, status,2, status,0
 Tracked objects:
		On entry : 
		On exit  : 
		Unchanged: 
 Data sizes:     COMRAM   BANK0   BANK1   BANK2   BANK3   BANK4   BANK5   BANK6   BANK7   BANK8   BANK9  BANK10  BANK11  BANK12  BANK13
      Params:         0       8       0       0       0       0       0       0       0       0       0       0       0       0       0
      Locals:         0       5       0       0       0       0       0       0       0       0       0       0       0       0       0
      Temps:          0       0       0       0       0       0       0       0       0       0       0       0       0       0       0
      Totals:         0      13       0       0       0       0       0       0       0       0       0       0       0       0       0
Total ram usage:       13 bytes
 Hardware stack levels used:    1
 Hardware stack levels required when called:    7
 This function calls:
		Nothing
 This function is called by:
		_RADIO_WriteFrequency
		_RADIO_WriteFSKFrequencyDeviation
		_RADIO_WriteFSKBitRate
		_RADIO_Transmit
		_RADIO_ReceiveStart
		_LORAWAN_TxDone
		_LORAWAN_RxTimeout
		_StartReTxTimer
		_DutyCycleCallback
		_LORAWAN_LinkCheckConfigure
		_LORAWAN_LinkCheckCallback
		_UpdateRetransmissionAckTimeoutState
		_UpdateJoinSuccessState
 This function uses a non-reentrant model


 *************** function _SwTimerStop *****************
 Defined at:
		line 233 in file "mcc_generated_files/LoRaWAN/sw_timer.c"
 Parameters:    Size  Location     Type
  timerId         1    wreg     unsigned char 
 Auto vars:     Size  Location     Type
  timerId         1    4[BANK0 ] unsigned char 
 Return value:  Size  Location     Type
                  1    wreg      void 
 Registers used:
		wreg, fsr2l, fsr2h, status,2, status,0, prodl, prodh
 Tracked objects:
		On entry : 
		On exit  : 
		Unchanged: 
 Data sizes:     COMRAM   BANK0   BANK1   BANK2   BANK3   BANK4   BANK5   BANK6   BANK7   BANK8   BANK9  BANK10  BANK11  BANK12  BANK13
      Params:         0       0       0       0       0       0       0       0       0       0       0       0       0       0       0
      Locals:         0       1       0       0       0       0       0       0       0       0       0       0       0       0       0
      Temps:          0       0       0       0       0       0       0       0       0       0       0       0       0       0       0
      Totals:         0       1       0       0       0       0       0       0       0       0       0       0       0       0       0
Total ram usage:        1 bytes
 Hardware stack levels used:    1
 Hardware stack levels required when called:    7
 This function calls:
		Nothing
 This function is called by:
		_RADIO_Init
		_RADIO_Transmit
		_RADIO_RxDone
		_RADIO_FSKPayloadReady
		_RADIO_RxTimeout
		_RADIO_TxDone
		_RADIO_FSKPacketSent
		_RADIO_RxFSKTimeout
		_LORAWAN_TxDone
		_StopAllSoftwareTimers
		_LORAWAN_LinkCheckConfigure
		_LORAWAN_RxDone
 This function uses a non-reentrant model


 *************** function _SwTimerStart *****************
 Defined at:
		line 218 in file "mcc_generated_files/LoRaWAN/sw_timer.c"
 Parameters:    Size  Location     Type
  timerId         1    wreg     unsigned char 
 Auto vars:     Size  Location     Type
  timerId         1   51[BANK0 ] unsigned char 
  ticksRemaini    4   47[BANK0 ] unsigned long 
 Return value:  Size  Location     Type
                  1    wreg      void 
 Registers used:
		wreg, fsr2l, fsr2h, status,2, status,0, prodl, prodh, cstack
 Tracked objects:
		On entry : 
		On exit  : 
		Unchanged: 
 Data sizes:     COMRAM   BANK0   BANK1   BANK2   BANK3   BANK4   BANK5   BANK6   BANK7   BANK8   BANK9  BANK10  BANK11  BANK12  BANK13
      Params:         0       0       0       0       0       0       0       0       0       0       0       0       0       0       0
      Locals:         0       5       0       0       0       0       0       0       0       0       0       0       0       0       0
      Temps:          0       4       0       0       0       0       0       0       0       0       0       0       0       0       0
      Totals:         0       9       0       0       0       0       0       0       0       0       0       0       0       0       0
Total ram usage:        9 bytes
 Hardware stack levels used:    1
 Hardware stack levels required when called:   10
 This function calls:
		_SwTimersInterrupt
		_TMR_OverrideRemaining
 This function is called by:
		_RADIO_Transmit
		_RADIO_ReceiveStart
		_LORAWAN_TxDone
		_LORAWAN_RxTimeout
		_StartReTxTimer
		_DutyCycleCallback
		_LORAWAN_Join
		_LORAWAN_LinkCheckConfigure
		_LORAWAN_LinkCheckCallback
		_UpdateRetransmissionAckTimeoutState
		_UpdateJoinSuccessState
 This function uses a non-reentrant model


 *************** function _TMR_OverrideRemaining *****************
 Defined at:
		line 65 in file "mcc_generated_files/LoRaWAN/sw_timer.c"
 Parameters:    Size  Location     Type
  ticksRemaini    4   12[BANK0 ] unsigned long 
 Auto vars:     Size  Location     Type
  oldReloadVal    2   20[BANK0 ] unsigned int 
  tmrVal          2   18[BANK0 ] unsigned int 
 Return value:  Size  Location     Type
                  1    wreg      void 
 Registers used:
		wreg, status,2, status,0, cstack
 Tracked objects:
		On entry : 
		On exit  : 
		Unchanged: 
 Data sizes:     COMRAM   BANK0   BANK1   BANK2   BANK3   BANK4   BANK5   BANK6   BANK7   BANK8   BANK9  BANK10  BANK11  BANK12  BANK13
      Params:         0       4       0       0       0       0       0       0       0       0       0       0       0       0       0
      Locals:         0       4       0       0       0       0       0       0       0       0       0       0       0       0       0
      Temps:          0       2       0       0       0       0       0       0       0       0       0       0       0       0       0
      Totals:         0      10       0       0       0       0       0       0       0       0       0       0       0       0       0
Total ram usage:       10 bytes
 Hardware stack levels used:    1
 Hardware stack levels required when called:    9
 This function calls:
		_TMR_SwapTimer
 This function is called by:
		_SwTimerStart
 This function uses a non-reentrant model


 *************** function _TMR_SwapTimer *****************
 Defined at:
		line 112 in file "mcc_generated_files/LoRaWAN/sw_timer.c"
 Parameters:    Size  Location     Type
  timerVal        2   10[BANK0 ] unsigned int 
 Auto vars:     Size  Location     Type
		None
 Return value:  Size  Location     Type
                  2   10[BANK0 ] unsigned int 
 Registers used:
		wreg, status,2, status,0, cstack
 Tracked objects:
		On entry : 
		On exit  : 
		Unchanged: 
 Data sizes:     COMRAM   BANK0   BANK1   BANK2   BANK3   BANK4   BANK5   BANK6   BANK7   BANK8   BANK9  BANK10  BANK11  BANK12  BANK13
      Params:         0       2       0       0       0       0       0       0       0       0       0       0       0       0       0
      Locals:         0       0       0       0       0       0       0       0       0       0       0       0       0       0       0
      Temps:          0       0       0       0       0       0       0       0       0       0       0       0       0       0       0
      Totals:         0       2       0       0       0       0       0       0       0       0       0       0       0       0       0
Total ram usage:        2 bytes
 Hardware stack levels used:    1
 Hardware stack levels required when called:    8
 This function calls:
		_TMR1_ReadTimer
		_TMR1_WriteTimer
 This function is called by:
		_TMR_OverrideRemaining
 This function uses a non-reentrant model


 *************** function _TMR1_WriteTimer *****************
 Defined at:
		line 122 in file "mcc_generated_files/tmr1.c"
 Parameters:    Size  Location     Type
  timerVal        2    4[BANK0 ] unsigned int 
 Auto vars:     Size  Location     Type
		None
 Return value:  Size  Location     Type
                  1    wreg      void 
 Registers used:
		None
 Tracked objects:
		On entry : 
		On exit  : 
		Unchanged: 
 Data sizes:     COMRAM   BANK0   BANK1   BANK2   BANK3   BANK4   BANK5   BANK6   BANK7   BANK8   BANK9  BANK10  BANK11  BANK12  BANK13
      Params:         0       2       0       0       0       0       0       0       0       0       0       0       0       0       0
      Locals:         0       0       0       0       0       0       0       0       0       0       0       0       0       0       0
      Temps:          0       0       0       0       0       0       0       0       0       0       0       0       0       0       0
      Totals:         0       2       0       0       0       0       0       0       0       0       0       0       0       0       0
Total ram usage:        2 bytes
 Hardware stack levels used:    1
 Hardware stack levels required when called:    7
 This function calls:
		Nothing
 This function is called by:
		_TMR_SwapTimer
 This function uses a non-reentrant model


 *************** function _SwTimersInterrupt *****************
 Defined at:
		line 287 in file "mcc_generated_files/LoRaWAN/sw_timer.c"
 Parameters:    Size  Location     Type
		None
 Auto vars:     Size  Location     Type
  ticksToNextT    4   38[BANK0 ] unsigned long 
  timeElapsed     4   34[BANK0 ] unsigned long 
  i               1   42[BANK0 ] unsigned char 
 Return value:  Size  Location     Type
                  4   26[BANK0 ] unsigned long 
 Registers used:
		wreg, fsr2l, fsr2h, status,2, status,0, prodl, prodh, cstack
 Tracked objects:
		On entry : 
		On exit  : 
		Unchanged: 
 Data sizes:     COMRAM   BANK0   BANK1   BANK2   BANK3   BANK4   BANK5   BANK6   BANK7   BANK8   BANK9  BANK10  BANK11  BANK12  BANK13
      Params:         0       4       0       0       0       0       0       0       0       0       0       0       0       0       0
      Locals:         0       9       0       0       0       0       0       0       0       0       0       0       0       0       0
      Temps:          0       4       0       0       0       0       0       0       0       0       0       0       0       0       0
      Totals:         0      17       0       0       0       0       0       0       0       0       0       0       0       0       0
Total ram usage:       17 bytes
 Hardware stack levels used:    1
 Hardware stack levels required when called:    9
 This function calls:
		_TMR_GetDeltaTime
 This function is called by:
		_SwTimerReadValue
		_SwTimerStart
 This function uses a non-reentrant model


 *************** function _TMR_GetDeltaTime *****************
 Defined at:
		line 88 in file "mcc_generated_files/LoRaWAN/sw_timer.c"
 Parameters:    Size  Location     Type
		None
 Auto vars:     Size  Location     Type
		None
 Return value:  Size  Location     Type
                  4   10[BANK0 ] unsigned long 
 Registers used:
		wreg, status,2, status,0, cstack
 Tracked objects:
		On entry : 
		On exit  : 
		Unchanged: 
 Data sizes:     COMRAM   BANK0   BANK1   BANK2   BANK3   BANK4   BANK5   BANK6   BANK7   BANK8   BANK9  BANK10  BANK11  BANK12  BANK13
      Params:         0       4       0       0       0       0       0       0       0       0       0       0       0       0       0
      Locals:         0       0       0       0       0       0       0       0       0       0       0       0       0       0       0
      Temps:          0      12       0       0       0       0       0       0       0       0       0       0       0       0       0
      Totals:         0      16       0       0       0       0       0       0       0       0       0       0       0       0       0
Total ram usage:       16 bytes
 Hardware stack levels used:    1
 Hardware stack levels required when called:    8
 This function calls:
		_TMR1_ReadTimer
 This function is called by:
		_SwTimersInterrupt
 This function uses a non-reentrant model


 *************** function _TMR1_ReadTimer *****************
 Defined at:
		line 113 in file "mcc_generated_files/tmr1.c"
 Parameters:    Size  Location     Type
		None
 Auto vars:     Size  Location     Type
  readVal         2    8[BANK0 ] unsigned int 
 Return value:  Size  Location     Type
                  2    4[BANK0 ] unsigned int 
 Registers used:
		wreg, status,2, status,0
 Tracked objects:
		On entry : 
		On exit  : 
		Unchanged: 
 Data sizes:     COMRAM   BANK0   BANK1   BANK2   BANK3   BANK4   BANK5   BANK6   BANK7   BANK8   BANK9  BANK10  BANK11  BANK12  BANK13
      Params:         0       2       0       0       0       0       0       0       0       0       0       0       0       0       0
      Locals:         0       2       0       0       0       0       0       0       0       0       0       0       0       0       0
      Temps:          0       2       0       0       0       0       0       0       0       0       0       0       0       0       0
      Totals:         0       6       0       0       0       0       0       0       0       0       0       0       0       0       0
Total ram usage:        6 bytes
 Hardware stack levels used:    1
 Hardware stack levels required when called:    7
 This function calls:
		Nothing
 This function is called by:
		_TMR_GetDeltaTime
		_TMR_SwapTimer
 This function uses a non-reentrant model


 *************** function _SwTimerSetTimeout *****************
 Defined at:
		line 186 in file "mcc_generated_files/LoRaWAN/sw_timer.c"
 Parameters:    Size  Location     Type
  timerId         1    wreg     unsigned char 
  timeout         4   17[BANK0 ] unsigned long 
 Auto vars:     Size  Location     Type
  timerId         1   25[BANK0 ] unsigned char 
 Return value:  Size  Location     Type
                  1    wreg      void 
 Registers used:
		wreg, fsr2l, fsr2h, status,2, status,0, prodl, prodh
 Tracked objects:
		On entry : 
		On exit  : 
		Unchanged: 
 Data sizes:     COMRAM   BANK0   BANK1   BANK2   BANK3   BANK4   BANK5   BANK6   BANK7   BANK8   BANK9  BANK10  BANK11  BANK12  BANK13
      Params:         0       4       0       0       0       0       0       0       0       0       0       0       0       0       0
      Locals:         0       1       0       0       0       0       0       0       0       0       0       0       0       0       0
      Temps:          0       4       0       0       0       0       0       0       0       0       0       0       0       0       0
      Totals:         0       9       0       0       0       0       0       0       0       0       0       0       0       0       0
Total ram usage:        9 bytes
 Hardware stack levels used:    1
 Hardware stack levels required when called:    7
 This function calls:
		Nothing
 This function is called by:
		_RADIO_Transmit
		_RADIO_ReceiveStart
		_LORAWAN_TxDone
		_LORAWAN_RxTimeout
		_StartReTxTimer
		_DutyCycleCallback
		_LORAWAN_Join
		_LORAWAN_LinkCheckConfigure
		_LORAWAN_LinkCheckCallback
		_UpdateRetransmissionAckTimeoutState
		_UpdateJoinSuccessState
 This function uses a non-reentrant model


 *************** function _InitDefault868Channels *****************
 Defined at:
		line 979 in file "mcc_generated_files/LoRaWAN/lorawan_eu.c"
 Parameters:    Size  Location     Type
		None
 Auto vars:     Size  Location     Type
  i               1   14[BANK0 ] unsigned char 
 Return value:  Size  Location     Type
                  1    wreg      void 
 Registers used:
		wreg, fsr0l, fsr0h, fsr2l, fsr2h, status,2, status,0, tblptrl, tblptrh, tblptru, prodl, prodh, cstack
 Tracked objects:
		On entry : 
		On exit  : 
		Unchanged: 
 Data sizes:     COMRAM   BANK0   BANK1   BANK2   BANK3   BANK4   BANK5   BANK6   BANK7   BANK8   BANK9  BANK10  BANK11  BANK12  BANK13
      Params:         0       0       0       0       0       0       0       0       0       0       0       0       0       0       0
      Locals:         0       1       0       0       0       0       0       0       0       0       0       0       0       0       0
      Temps:          0       0       0       0       0       0       0       0       0       0       0       0       0       0       0
      Totals:         0       1       0       0       0       0       0       0       0       0       0       0       0       0       0
Total ram usage:        1 bytes
 Hardware stack levels used:    1
 Hardware stack levels required when called:    8
 This function calls:
		_memcpy
		_memset
 This function is called by:
		_LORAWAN_Reset
 This function uses a non-reentrant model


 *************** function _InitDefault433Channels *****************
 Defined at:
		line 994 in file "mcc_generated_files/LoRaWAN/lorawan_eu.c"
 Parameters:    Size  Location     Type
		None
 Auto vars:     Size  Location     Type
  i               1   14[BANK0 ] unsigned char 
 Return value:  Size  Location     Type
                  1    wreg      void 
 Registers used:
		wreg, fsr0l, fsr0h, fsr2l, fsr2h, status,2, status,0, tblptrl, tblptrh, tblptru, prodl, prodh, cstack
 Tracked objects:
		On entry : 
		On exit  : 
		Unchanged: 
 Data sizes:     COMRAM   BANK0   BANK1   BANK2   BANK3   BANK4   BANK5   BANK6   BANK7   BANK8   BANK9  BANK10  BANK11  BANK12  BANK13
      Params:         0       0       0       0       0       0       0       0       0       0       0       0       0       0       0
      Locals:         0       1       0       0       0       0       0       0       0       0       0       0       0       0       0
      Temps:          0       0       0       0       0       0       0       0       0       0       0       0       0       0       0
      Totals:         0       1       0       0       0       0       0       0       0       0       0       0       0       0       0
Total ram usage:        1 bytes
 Hardware stack levels used:    1
 Hardware stack levels required when called:    8
 This function calls:
		_memcpy
		_memset
 This function is called by:
		_LORAWAN_Reset
 This function uses a non-reentrant model


 *************** function _memset *****************
 Defined at:
		line 8 in file "C:\Program Files (x86)\Microchip\xc8\v1.38\sources\common\memset.c"
 Parameters:    Size  Location     Type
  p1              2    4[BANK0 ] PTR void 
		 -> AssemblePacket@mhdr(1), aesBuffer(16), GenerateSubkey@l(16), AESCmac@x(16), 
		 -> macBuffer(271), Channels(224), loRa.activationParameters(105), loRa(245), 
  c               2    6[BANK0 ] int 
  n               2    8[BANK0 ] unsigned int 
 Auto vars:     Size  Location     Type
  p               2   10[BANK0 ] PTR unsigned char 
		 -> AssemblePacket@mhdr(1), aesBuffer(16), GenerateSubkey@l(16), AESCmac@x(16), 
		 -> macBuffer(271), Channels(224), loRa.activationParameters(105), loRa(245), 
 Return value:  Size  Location     Type
                  2    4[BANK0 ] PTR void 
 Registers used:
		wreg, fsr2l, fsr2h, status,2, status,0
 Tracked objects:
		On entry : 
		On exit  : 
		Unchanged: 
 Data sizes:     COMRAM   BANK0   BANK1   BANK2   BANK3   BANK4   BANK5   BANK6   BANK7   BANK8   BANK9  BANK10  BANK11  BANK12  BANK13
      Params:         0       6       0       0       0       0       0       0       0       0       0       0       0       0       0
      Locals:         0       2       0       0       0       0       0       0       0       0       0       0       0       0       0
      Temps:          0       0       0       0       0       0       0       0       0       0       0       0       0       0       0
      Totals:         0       8       0       0       0       0       0       0       0       0       0       0       0       0       0
Total ram usage:        8 bytes
 Hardware stack levels used:    1
 Hardware stack levels required when called:    7
 This function calls:
		Nothing
 This function is called by:
		_LORAWAN_Reset
		_InitDefault868Channels
		_InitDefault433Channels
		_AESCmac
		_GenerateSubkey
		_AssemblePacket
		_PrepareJoinRequestFrame
		_PrepareSessionKeys
		_AssembleEncryptionBlock
 This function uses a non-reentrant model


 *************** function _memcpy *****************
 Defined at:
		line 11 in file "C:\Program Files (x86)\Microchip\xc8\v1.38\sources\common\memcpy.c"
 Parameters:    Size  Location     Type
  d1              2    4[BANK0 ] PTR void 
		 -> AESEncodeLoRa@useKey(16), ComputeMic@mic(4), ExtractMic@mic(4), aesBuffer(16), 
		 -> LORAWAN_RxDone@computedMic(4), loRa.activationParameters.applicationEui(8), loRa.activationParameters.deviceEui(8), AESCmac@x(16), 
		 -> UpdateCfList@frequency(4), macBuffer(271), Channels(224), loRa.activationParameters(105), 
		 -> radioBuffer(271), loRa(245), RadioConfiguration(54), 
  s1              2    6[BANK0 ] PTR const void 
		 -> radioBuffer.cfList(16), LORAWAN_RxDone@hdr.cfList(16), payload(2), appSKey(16), 
		 -> nwkSKey(16), AssembleEncryptionBlock@frameCounter(4), ComputeSessionKeys@joinAcceptBuffer(2), PrepareJoinRequestFrame@mic(4), 
		 -> loRa.fCntUp.valueLow(2), aesBuffer(16), LORAWAN_RxDone@hdr(2), loRa.activationParameters.applicationKey(16), 
		 -> loRa.activationParameters.applicationSessionKey(16), loRa.activationParameters.networkSessionKey(16), loRa.activationParameters.deviceAddress(4), loRa.activationParameters.applicationEui(8), 
		 -> loRa.activationParameters.deviceEui(8), loRa.activationParameters.mcastApplicationSessionKey(16), loRa.activationParameters.mcastNetworkSessionKey(16), loRa.activationParameters.mcastDeviceAddress(4), 
		 -> AESCmac@y(16), FskSyncWordBuff(3), UpdateCfList@joinAccept(2), loRa.activationParameters(105), 
		 -> loRa.devNonce(2), loRa.fCntUp(4), radioBuffer(271), loRa(245), 
		 -> DefaultChannels433(42), DefaultChannels868(42), RadioConfiguration.syncWord(8), RadioConfiguration(54), 
		 -> NULL(0), 
  n               2    8[BANK0 ] unsigned int 
 Auto vars:     Size  Location     Type
  s               2   12[BANK0 ] PTR const unsigned char 
		 -> radioBuffer.cfList(16), LORAWAN_RxDone@hdr.cfList(16), payload(2), appSKey(16), 
		 -> nwkSKey(16), AssembleEncryptionBlock@frameCounter(4), ComputeSessionKeys@joinAcceptBuffer(2), PrepareJoinRequestFrame@mic(4), 
		 -> loRa.fCntUp.valueLow(2), aesBuffer(16), LORAWAN_RxDone@hdr(2), loRa.activationParameters.applicationKey(16), 
		 -> loRa.activationParameters.applicationSessionKey(16), loRa.activationParameters.networkSessionKey(16), loRa.activationParameters.deviceAddress(4), loRa.activationParameters.applicationEui(8), 
		 -> loRa.activationParameters.deviceEui(8), loRa.activationParameters.mcastApplicationSessionKey(16), loRa.activationParameters.mcastNetworkSessionKey(16), loRa.activationParameters.mcastDeviceAddress(4), 
		 -> AESCmac@y(16), FskSyncWordBuff(3), UpdateCfList@joinAccept(2), loRa.activationParameters(105), 
		 -> loRa.devNonce(2), loRa.fCntUp(4), radioBuffer(271), loRa(245), 
		 -> DefaultChannels433(42), DefaultChannels868(42), RadioConfiguration.syncWord(8), RadioConfiguration(54), 
		 -> NULL(0), 
  d               2   10[BANK0 ] PTR unsigned char 
		 -> AESEncodeLoRa@useKey(16), ComputeMic@mic(4), ExtractMic@mic(4), aesBuffer(16), 
		 -> LORAWAN_RxDone@computedMic(4), loRa.activationParameters.applicationEui(8), loRa.activationParameters.deviceEui(8), AESCmac@x(16), 
		 -> UpdateCfList@frequency(4), macBuffer(271), Channels(224), loRa.activationParameters(105), 
		 -> radioBuffer(271), loRa(245), RadioConfiguration(54), 
 Return value:  Size  Location     Type
                  2    4[BANK0 ] PTR void 
 Registers used:
		wreg, fsr0l, fsr0h, fsr2l, fsr2h, status,2, status,0, tblptrl, tblptrh, tblptru
 Tracked objects:
		On entry : 
		On exit  : 
		Unchanged: 
 Data sizes:     COMRAM   BANK0   BANK1   BANK2   BANK3   BANK4   BANK5   BANK6   BANK7   BANK8   BANK9  BANK10  BANK11  BANK12  BANK13
      Params:         0       6       0       0       0       0       0       0       0       0       0       0       0       0       0
      Locals:         0       4       0       0       0       0       0       0       0       0       0       0       0       0       0
      Temps:          0       0       0       0       0       0       0       0       0       0       0       0       0       0       0
      Totals:         0      10       0       0       0       0       0       0       0       0       0       0       0       0       0
Total ram usage:       10 bytes
 Hardware stack levels used:    1
 Hardware stack levels required when called:    7
 This function calls:
		Nothing
 This function is called by:
		_RADIO_SetFSKSyncWord
		_UpdateCfList
		_InitDefault868Channels
		_InitDefault433Channels
		_AESCmac
		_LORAWAN_SetNetworkSessionKey
		_LORAWAN_SetApplicationSessionKey
		_LORAWAN_RxDone
		_AssemblePacket
		_PrepareJoinRequestFrame
		_PrepareSessionKeys
		_AssembleEncryptionBlock
		_ExtractMic
		_ComputeMic
		_AESEncodeLoRa
 This function uses a non-reentrant model


 *************** function _CreateAllSoftwareTimers *****************
 Defined at:
		line 937 in file "mcc_generated_files/LoRaWAN/lorawan_eu.c"
 Parameters:    Size  Location     Type
		None
 Auto vars:     Size  Location     Type
		None
 Return value:  Size  Location     Type
                  1    wreg      void 
 Registers used:
		wreg, fsr2l, fsr2h, status,2, status,0, prodl, prodh, cstack
 Tracked objects:
		On entry : 
		On exit  : 
		Unchanged: 
 Data sizes:     COMRAM   BANK0   BANK1   BANK2   BANK3   BANK4   BANK5   BANK6   BANK7   BANK8   BANK9  BANK10  BANK11  BANK12  BANK13
      Params:         0       0       0       0       0       0       0       0       0       0       0       0       0       0       0
      Locals:         0       0       0       0       0       0       0       0       0       0       0       0       0       0       0
      Temps:          0       0       0       0       0       0       0       0       0       0       0       0       0       0       0
      Totals:         0       0       0       0       0       0       0       0       0       0       0       0       0       0       0
Total ram usage:        0 bytes
 Hardware stack levels used:    1
 Hardware stack levels required when called:    8
 This function calls:
		_SwTimerCreate
 This function is called by:
		_LORAWAN_Init
 This function uses a non-reentrant model


 *************** function _SwTimerCreate *****************
 Defined at:
		line 154 in file "mcc_generated_files/LoRaWAN/sw_timer.c"
 Parameters:    Size  Location     Type
		None
 Auto vars:     Size  Location     Type
  retVal          1    4[BANK0 ] unsigned char 
 Return value:  Size  Location     Type
                  1    wreg      unsigned char 
 Registers used:
		wreg, fsr2l, fsr2h, status,2, status,0, prodl, prodh
 Tracked objects:
		On entry : 
		On exit  : 
		Unchanged: 
 Data sizes:     COMRAM   BANK0   BANK1   BANK2   BANK3   BANK4   BANK5   BANK6   BANK7   BANK8   BANK9  BANK10  BANK11  BANK12  BANK13
      Params:         0       0       0       0       0       0       0       0       0       0       0       0       0       0       0
      Locals:         0       1       0       0       0       0       0       0       0       0       0       0       0       0       0
      Temps:          0       0       0       0       0       0       0       0       0       0       0       0       0       0       0
      Totals:         0       1       0       0       0       0       0       0       0       0       0       0       0       0       0
Total ram usage:        1 bytes
 Hardware stack levels used:    1
 Hardware stack levels required when called:    7
 This function calls:
		Nothing
 This function is called by:
		_RADIO_Init
		_CreateAllSoftwareTimers
 This function uses a non-reentrant model


 *************** function _INTERRUPT_InterruptManager *****************
 Defined at:
		line 57 in file "mcc_generated_files/interrupt_manager.c"
 Parameters:    Size  Location     Type
		None
 Auto vars:     Size  Location     Type
		None
 Return value:  Size  Location     Type
                  1    wreg      void 
 Registers used:
		wreg, fsr2l, fsr2h, status,2, status,0, pclat, tosl, prodl, prodh, cstack
 Tracked objects:
		On entry : 
		On exit  : 
		Unchanged: 
 Data sizes:     COMRAM   BANK0   BANK1   BANK2   BANK3   BANK4   BANK5   BANK6   BANK7   BANK8   BANK9  BANK10  BANK11  BANK12  BANK13
      Params:         0       0       0       0       0       0       0       0       0       0       0       0       0       0       0
      Locals:         0       0       0       0       0       0       0       0       0       0       0       0       0       0       0
      Temps:          8       0       0       0       0       0       0       0       0       0       0       0       0       0       0
      Totals:         8       0       0       0       0       0       0       0       0       0       0       0       0       0       0
Total ram usage:        8 bytes
 Hardware stack levels used:    1
 Hardware stack levels required when called:    6
 This function calls:
		_INT1_ISR
		_INT2_ISR
		_PIN_MANAGER_IOC
		_TMR1_ISR
 This function is called by:
		Interrupt level 2
 This function uses a non-reentrant model


 *************** function _TMR1_ISR *****************
 Defined at:
		line 161 in file "mcc_generated_files/tmr1.c"
 Parameters:    Size  Location     Type
		None
 Auto vars:     Size  Location     Type
		None
 Return value:  Size  Location     Type
                  1    wreg      void 
 Registers used:
		wreg, fsr2l, fsr2h, status,2, status,0, pclat, tosl, prodl, prodh, cstack
 Tracked objects:
		On entry : 
		On exit  : 
		Unchanged: 
 Data sizes:     COMRAM   BANK0   BANK1   BANK2   BANK3   BANK4   BANK5   BANK6   BANK7   BANK8   BANK9  BANK10  BANK11  BANK12  BANK13
      Params:         0       0       0       0       0       0       0       0       0       0       0       0       0       0       0
      Locals:         0       0       0       0       0       0       0       0       0       0       0       0       0       0       0
      Temps:          0       0       0       0       0       0       0       0       0       0       0       0       0       0       0
      Totals:         0       0       0       0       0       0       0       0       0       0       0       0       0       0       0
Total ram usage:        0 bytes
 Hardware stack levels used:    1
 Hardware stack levels required when called:    5
 This function calls:
		_TMR1_CallBack
 This function is called by:
		_INTERRUPT_InterruptManager
 This function uses a non-reentrant model


 *************** function _TMR1_CallBack *****************
 Defined at:
		line 182 in file "mcc_generated_files/tmr1.c"
 Parameters:    Size  Location     Type
		None
 Auto vars:     Size  Location     Type
		None
 Return value:  Size  Location     Type
                  1    wreg      void 
 Registers used:
		wreg, fsr2l, fsr2h, status,2, status,0, pclat, tosl, prodl, prodh, cstack
 Tracked objects:
		On entry : 
		On exit  : 
		Unchanged: 
 Data sizes:     COMRAM   BANK0   BANK1   BANK2   BANK3   BANK4   BANK5   BANK6   BANK7   BANK8   BANK9  BANK10  BANK11  BANK12  BANK13
      Params:         0       0       0       0       0       0       0       0       0       0       0       0       0       0       0
      Locals:         0       0       0       0       0       0       0       0       0       0       0       0       0       0       0
      Temps:          0       0       0       0       0       0       0       0       0       0       0       0       0       0       0
      Totals:         0       0       0       0       0       0       0       0       0       0       0       0       0       0       0
Total ram usage:        0 bytes
 Hardware stack levels used:    1
 Hardware stack levels required when called:    4
 This function calls:
		Absolute function
		_TMR1_DefaultInterruptHandler
		_TMR_ISR_lora
 This function is called by:
		_TMR1_ISR
 This function uses a non-reentrant model


 *************** function _TMR1_DefaultInterruptHandler *****************
 Defined at:
		line 195 in file "mcc_generated_files/tmr1.c"
 Parameters:    Size  Location     Type
		None
 Auto vars:     Size  Location     Type
		None
 Return value:  Size  Location     Type
                  1    wreg      void 
 Registers used:
		None
 Tracked objects:
		On entry : 
		On exit  : 
		Unchanged: 
 Data sizes:     COMRAM   BANK0   BANK1   BANK2   BANK3   BANK4   BANK5   BANK6   BANK7   BANK8   BANK9  BANK10  BANK11  BANK12  BANK13
      Params:         0       0       0       0       0       0       0       0       0       0       0       0       0       0       0
      Locals:         0       0       0       0       0       0       0       0       0       0       0       0       0       0       0
      Temps:          0       0       0       0       0       0       0       0       0       0       0       0       0       0       0
      Totals:         0       0       0       0       0       0       0       0       0       0       0       0       0       0       0
Total ram usage:        0 bytes
 Hardware stack levels used:    1
 This function calls:
		Nothing
 This function is called by:
		_TMR1_Initialize
		_TMR1_CallBack
 This function uses a non-reentrant model


 *************** function _TMR_ISR_lora *****************
 Defined at:
		line 59 in file "mcc_generated_files/LoRaWAN/tmr_lora_addons.c"
 Parameters:    Size  Location     Type
		None
 Auto vars:     Size  Location     Type
		None
 Return value:  Size  Location     Type
                  1    wreg      void 
 Registers used:
		wreg, fsr2l, fsr2h, status,2, status,0, prodl, prodh, cstack
 Tracked objects:
		On entry : 
		On exit  : 
		Unchanged: 
 Data sizes:     COMRAM   BANK0   BANK1   BANK2   BANK3   BANK4   BANK5   BANK6   BANK7   BANK8   BANK9  BANK10  BANK11  BANK12  BANK13
      Params:         0       0       0       0       0       0       0       0       0       0       0       0       0       0       0
      Locals:         0       0       0       0       0       0       0       0       0       0       0       0       0       0       0
      Temps:          0       0       0       0       0       0       0       0       0       0       0       0       0       0       0
      Totals:         0       0       0       0       0       0       0       0       0       0       0       0       0       0       0
Total ram usage:        0 bytes
 Hardware stack levels used:    1
 Hardware stack levels required when called:    3
 This function calls:
		i2_SwTimersInterrupt
		i2_TMR_SwapTimer
 This function is called by:
		_TMR_ISR_Lora_Init
		_TMR1_CallBack
 This function uses a non-reentrant model


 *************** function i2_TMR_SwapTimer *****************
 Defined at:
		line 112 in file "mcc_generated_files/LoRaWAN/sw_timer.c"
 Parameters:    Size  Location     Type
  timerVal        2    6[COMRAM] unsigned int 
 Auto vars:     Size  Location     Type
		None
 Return value:  Size  Location     Type
                  2    6[COMRAM] unsigned int 
 Registers used:
		wreg, status,2, status,0, cstack
 Tracked objects:
		On entry : 
		On exit  : 
		Unchanged: 
 Data sizes:     COMRAM   BANK0   BANK1   BANK2   BANK3   BANK4   BANK5   BANK6   BANK7   BANK8   BANK9  BANK10  BANK11  BANK12  BANK13
      Params:         2       0       0       0       0       0       0       0       0       0       0       0       0       0       0
      Locals:         0       0       0       0       0       0       0       0       0       0       0       0       0       0       0
      Temps:          0       0       0       0       0       0       0       0       0       0       0       0       0       0       0
      Totals:         2       0       0       0       0       0       0       0       0       0       0       0       0       0       0
Total ram usage:        2 bytes
 Hardware stack levels used:    1
 Hardware stack levels required when called:    1
 This function calls:
		i2_TMR1_ReadTimer
		i2_TMR1_WriteTimer
 This function is called by:
		_TMR_ISR_lora
 This function uses a non-reentrant model


 *************** function i2_TMR1_WriteTimer *****************
 Defined at:
		line 122 in file "mcc_generated_files/tmr1.c"
 Parameters:    Size  Location     Type
  timerVal        2    0[COMRAM] unsigned int 
 Auto vars:     Size  Location     Type
		None
 Return value:  Size  Location     Type
                  1    wreg      void 
 Registers used:
		None
 Tracked objects:
		On entry : 
		On exit  : 
		Unchanged: 
 Data sizes:     COMRAM   BANK0   BANK1   BANK2   BANK3   BANK4   BANK5   BANK6   BANK7   BANK8   BANK9  BANK10  BANK11  BANK12  BANK13
      Params:         2       0       0       0       0       0       0       0       0       0       0       0       0       0       0
      Locals:         0       0       0       0       0       0       0       0       0       0       0       0       0       0       0
      Temps:          0       0       0       0       0       0       0       0       0       0       0       0       0       0       0
      Totals:         2       0       0       0       0       0       0       0       0       0       0       0       0       0       0
Total ram usage:        2 bytes
 Hardware stack levels used:    1
 This function calls:
		Nothing
 This function is called by:
		i2_TMR_SwapTimer
 This function uses a non-reentrant model


 *************** function i2_SwTimersInterrupt *****************
 Defined at:
		line 287 in file "mcc_generated_files/LoRaWAN/sw_timer.c"
 Parameters:    Size  Location     Type
		None
 Auto vars:     Size  Location     Type
  SwTimersInte    4   34[COMRAM] unsigned long 
  SwTimersInte    4   30[COMRAM] unsigned long 
  SwTimersInte    1   38[COMRAM] unsigned char 
 Return value:  Size  Location     Type
                  4   22[COMRAM] unsigned long 
 Registers used:
		wreg, fsr2l, fsr2h, status,2, status,0, prodl, prodh, cstack
 Tracked objects:
		On entry : 
		On exit  : 
		Unchanged: 
 Data sizes:     COMRAM   BANK0   BANK1   BANK2   BANK3   BANK4   BANK5   BANK6   BANK7   BANK8   BANK9  BANK10  BANK11  BANK12  BANK13
      Params:         4       0       0       0       0       0       0       0       0       0       0       0       0       0       0
      Locals:         9       0       0       0       0       0       0       0       0       0       0       0       0       0       0
      Temps:          4       0       0       0       0       0       0       0       0       0       0       0       0       0       0
      Totals:        17       0       0       0       0       0       0       0       0       0       0       0       0       0       0
Total ram usage:       17 bytes
 Hardware stack levels used:    1
 Hardware stack levels required when called:    2
 This function calls:
		i2_TMR_GetDeltaTime
 This function is called by:
		_TMR_ISR_lora
 This function uses a non-reentrant model


 *************** function i2_TMR_GetDeltaTime *****************
 Defined at:
		line 88 in file "mcc_generated_files/LoRaWAN/sw_timer.c"
 Parameters:    Size  Location     Type
		None
 Auto vars:     Size  Location     Type
		None
 Return value:  Size  Location     Type
                  4    6[COMRAM] unsigned long 
 Registers used:
		wreg, status,2, status,0, cstack
 Tracked objects:
		On entry : 
		On exit  : 
		Unchanged: 
 Data sizes:     COMRAM   BANK0   BANK1   BANK2   BANK3   BANK4   BANK5   BANK6   BANK7   BANK8   BANK9  BANK10  BANK11  BANK12  BANK13
      Params:         4       0       0       0       0       0       0       0       0       0       0       0       0       0       0
      Locals:         0       0       0       0       0       0       0       0       0       0       0       0       0       0       0
      Temps:         12       0       0       0       0       0       0       0       0       0       0       0       0       0       0
      Totals:        16       0       0       0       0       0       0       0       0       0       0       0       0       0       0
Total ram usage:       16 bytes
 Hardware stack levels used:    1
 Hardware stack levels required when called:    1
 This function calls:
		i2_TMR1_ReadTimer
 This function is called by:
		i2_SwTimersInterrupt
 This function uses a non-reentrant model


 *************** function i2_TMR1_ReadTimer *****************
 Defined at:
		line 113 in file "mcc_generated_files/tmr1.c"
 Parameters:    Size  Location     Type
		None
 Auto vars:     Size  Location     Type
  TMR1_ReadTim    2    4[COMRAM] unsigned int 
 Return value:  Size  Location     Type
                  2    0[COMRAM] unsigned int 
 Registers used:
		wreg, status,2, status,0
 Tracked objects:
		On entry : 
		On exit  : 
		Unchanged: 
 Data sizes:     COMRAM   BANK0   BANK1   BANK2   BANK3   BANK4   BANK5   BANK6   BANK7   BANK8   BANK9  BANK10  BANK11  BANK12  BANK13
      Params:         2       0       0       0       0       0       0       0       0       0       0       0       0       0       0
      Locals:         2       0       0       0       0       0       0       0       0       0       0       0       0       0       0
      Temps:          2       0       0       0       0       0       0       0       0       0       0       0       0       0       0
      Totals:         6       0       0       0       0       0       0       0       0       0       0       0       0       0       0
Total ram usage:        6 bytes
 Hardware stack levels used:    1
 This function calls:
		Nothing
 This function is called by:
		i2_TMR_GetDeltaTime
		i2_TMR_SwapTimer
 This function uses a non-reentrant model


 *************** function _PIN_MANAGER_IOC *****************
 Defined at:
		line 152 in file "mcc_generated_files/pin_manager.c"
 Parameters:    Size  Location     Type
		None
 Auto vars:     Size  Location     Type
		None
 Return value:  Size  Location     Type
                  1    wreg      void 
 Registers used:
		wreg, status,2, status,0, pclat, tosl, cstack
 Tracked objects:
		On entry : 
		On exit  : 
		Unchanged: 
 Data sizes:     COMRAM   BANK0   BANK1   BANK2   BANK3   BANK4   BANK5   BANK6   BANK7   BANK8   BANK9  BANK10  BANK11  BANK12  BANK13
      Params:         0       0       0       0       0       0       0       0       0       0       0       0       0       0       0
      Locals:         0       0       0       0       0       0       0       0       0       0       0       0       0       0       0
      Temps:          0       0       0       0       0       0       0       0       0       0       0       0       0       0       0
      Totals:         0       0       0       0       0       0       0       0       0       0       0       0       0       0       0
Total ram usage:        0 bytes
 Hardware stack levels used:    1
 Hardware stack levels required when called:    2
 This function calls:
		_IOCBF4_ISR
 This function is called by:
		_INTERRUPT_InterruptManager
 This function uses a non-reentrant model


 *************** function _IOCBF4_ISR *****************
 Defined at:
		line 166 in file "mcc_generated_files/pin_manager.c"
 Parameters:    Size  Location     Type
		None
 Auto vars:     Size  Location     Type
		None
 Return value:  Size  Location     Type
                  1    wreg      void 
 Registers used:
		wreg, status,2, status,0, pclat, tosl, cstack
 Tracked objects:
		On entry : 
		On exit  : 
		Unchanged: 
 Data sizes:     COMRAM   BANK0   BANK1   BANK2   BANK3   BANK4   BANK5   BANK6   BANK7   BANK8   BANK9  BANK10  BANK11  BANK12  BANK13
      Params:         0       0       0       0       0       0       0       0       0       0       0       0       0       0       0
      Locals:         0       0       0       0       0       0       0       0       0       0       0       0       0       0       0
      Temps:          0       0       0       0       0       0       0       0       0       0       0       0       0       0       0
      Totals:         0       0       0       0       0       0       0       0       0       0       0       0       0       0       0
Total ram usage:        0 bytes
 Hardware stack levels used:    1
 Hardware stack levels required when called:    1
 This function calls:
		Absolute function
		_IOCBF4_DefaultInterruptHandler
 This function is called by:
		_PIN_MANAGER_IOC
 This function uses a non-reentrant model


 *************** function _IOCBF4_DefaultInterruptHandler *****************
 Defined at:
		line 188 in file "mcc_generated_files/pin_manager.c"
 Parameters:    Size  Location     Type
		None
 Auto vars:     Size  Location     Type
		None
 Return value:  Size  Location     Type
                  1    wreg      void 
 Registers used:
		None
 Tracked objects:
		On entry : 
		On exit  : 
		Unchanged: 
 Data sizes:     COMRAM   BANK0   BANK1   BANK2   BANK3   BANK4   BANK5   BANK6   BANK7   BANK8   BANK9  BANK10  BANK11  BANK12  BANK13
      Params:         0       0       0       0       0       0       0       0       0       0       0       0       0       0       0
      Locals:         0       0       0       0       0       0       0       0       0       0       0       0       0       0       0
      Temps:          0       0       0       0       0       0       0       0       0       0       0       0       0       0       0
      Totals:         0       0       0       0       0       0       0       0       0       0       0       0       0       0       0
Total ram usage:        0 bytes
 Hardware stack levels used:    1
 This function calls:
		Nothing
 This function is called by:
		_PIN_MANAGER_Initialize
		_IOCBF4_ISR
 This function uses a non-reentrant model


 *************** function _INT2_ISR *****************
 Defined at:
		line 87 in file "mcc_generated_files/ext_int.c"
 Parameters:    Size  Location     Type
		None
 Auto vars:     Size  Location     Type
		None
 Return value:  Size  Location     Type
                  1    wreg      void 
 Registers used:
		wreg, status,2, status,0, pclat, tosl, cstack
 Tracked objects:
		On entry : 
		On exit  : 
		Unchanged: 
 Data sizes:     COMRAM   BANK0   BANK1   BANK2   BANK3   BANK4   BANK5   BANK6   BANK7   BANK8   BANK9  BANK10  BANK11  BANK12  BANK13
      Params:         0       0       0       0       0       0       0       0       0       0       0       0       0       0       0
      Locals:         0       0       0       0       0       0       0       0       0       0       0       0       0       0       0
      Temps:          0       0       0       0       0       0       0       0       0       0       0       0       0       0       0
      Totals:         0       0       0       0       0       0       0       0       0       0       0       0       0       0       0
Total ram usage:        0 bytes
 Hardware stack levels used:    1
 Hardware stack levels required when called:    2
 This function calls:
		_INT2_CallBack
 This function is called by:
		_INTERRUPT_InterruptManager
 This function uses a non-reentrant model


 *************** function _INT2_CallBack *****************
 Defined at:
		line 102 in file "mcc_generated_files/ext_int.c"
 Parameters:    Size  Location     Type
		None
 Auto vars:     Size  Location     Type
		None
 Return value:  Size  Location     Type
                  1    wreg      void 
 Registers used:
		wreg, status,2, status,0, pclat, tosl, cstack
 Tracked objects:
		On entry : 
		On exit  : 
		Unchanged: 
 Data sizes:     COMRAM   BANK0   BANK1   BANK2   BANK3   BANK4   BANK5   BANK6   BANK7   BANK8   BANK9  BANK10  BANK11  BANK12  BANK13
      Params:         0       0       0       0       0       0       0       0       0       0       0       0       0       0       0
      Locals:         0       0       0       0       0       0       0       0       0       0       0       0       0       0       0
      Temps:          0       0       0       0       0       0       0       0       0       0       0       0       0       0       0
      Totals:         0       0       0       0       0       0       0       0       0       0       0       0       0       0       0
Total ram usage:        0 bytes
 Hardware stack levels used:    1
 Hardware stack levels required when called:    1
 This function calls:
		Absolute function
		_INT2_DefaultInterruptHandler
 This function is called by:
		_INT2_ISR
 This function uses a non-reentrant model


 *************** function _INT2_DefaultInterruptHandler *****************
 Defined at:
		line 121 in file "mcc_generated_files/ext_int.c"
 Parameters:    Size  Location     Type
		None
 Auto vars:     Size  Location     Type
		None
 Return value:  Size  Location     Type
                  1    wreg      void 
 Registers used:
		None
 Tracked objects:
		On entry : 
		On exit  : 
		Unchanged: 
 Data sizes:     COMRAM   BANK0   BANK1   BANK2   BANK3   BANK4   BANK5   BANK6   BANK7   BANK8   BANK9  BANK10  BANK11  BANK12  BANK13
      Params:         0       0       0       0       0       0       0       0       0       0       0       0       0       0       0
      Locals:         0       0       0       0       0       0       0       0       0       0       0       0       0       0       0
      Temps:          0       0       0       0       0       0       0       0       0       0       0       0       0       0       0
      Totals:         0       0       0       0       0       0       0       0       0       0       0       0       0       0       0
Total ram usage:        0 bytes
 Hardware stack levels used:    1
 This function calls:
		Nothing
 This function is called by:
		_EXT_INT_Initialize
		_INT2_CallBack
 This function uses a non-reentrant model


 *************** function _INT1_ISR *****************
 Defined at:
		line 46 in file "mcc_generated_files/ext_int.c"
 Parameters:    Size  Location     Type
		None
 Auto vars:     Size  Location     Type
		None
 Return value:  Size  Location     Type
                  1    wreg      void 
 Registers used:
		wreg, status,2, status,0, pclat, tosl, cstack
 Tracked objects:
		On entry : 
		On exit  : 
		Unchanged: 
 Data sizes:     COMRAM   BANK0   BANK1   BANK2   BANK3   BANK4   BANK5   BANK6   BANK7   BANK8   BANK9  BANK10  BANK11  BANK12  BANK13
      Params:         0       0       0       0       0       0       0       0       0       0       0       0       0       0       0
      Locals:         0       0       0       0       0       0       0       0       0       0       0       0       0       0       0
      Temps:          0       0       0       0       0       0       0       0       0       0       0       0       0       0       0
      Totals:         0       0       0       0       0       0       0       0       0       0       0       0       0       0       0
Total ram usage:        0 bytes
 Hardware stack levels used:    1
 Hardware stack levels required when called:    2
 This function calls:
		_INT1_CallBack
 This function is called by:
		_INTERRUPT_InterruptManager
 This function uses a non-reentrant model


 *************** function _INT1_CallBack *****************
 Defined at:
		line 61 in file "mcc_generated_files/ext_int.c"
 Parameters:    Size  Location     Type
		None
 Auto vars:     Size  Location     Type
		None
 Return value:  Size  Location     Type
                  1    wreg      void 
 Registers used:
		wreg, status,2, status,0, pclat, tosl, cstack
 Tracked objects:
		On entry : 
		On exit  : 
		Unchanged: 
 Data sizes:     COMRAM   BANK0   BANK1   BANK2   BANK3   BANK4   BANK5   BANK6   BANK7   BANK8   BANK9  BANK10  BANK11  BANK12  BANK13
      Params:         0       0       0       0       0       0       0       0       0       0       0       0       0       0       0
      Locals:         0       0       0       0       0       0       0       0       0       0       0       0       0       0       0
      Temps:          0       0       0       0       0       0       0       0       0       0       0       0       0       0       0
      Totals:         0       0       0       0       0       0       0       0       0       0       0       0       0       0       0
Total ram usage:        0 bytes
 Hardware stack levels used:    1
 Hardware stack levels required when called:    1
 This function calls:
		Absolute function
		_INT1_DefaultInterruptHandler
 This function is called by:
		_INT1_ISR
 This function uses a non-reentrant model


 *************** function _INT1_DefaultInterruptHandler *****************
 Defined at:
		line 80 in file "mcc_generated_files/ext_int.c"
 Parameters:    Size  Location     Type
		None
 Auto vars:     Size  Location     Type
		None
 Return value:  Size  Location     Type
                  1    wreg      void 
 Registers used:
		None
 Tracked objects:
		On entry : 
		On exit  : 
		Unchanged: 
 Data sizes:     COMRAM   BANK0   BANK1   BANK2   BANK3   BANK4   BANK5   BANK6   BANK7   BANK8   BANK9  BANK10  BANK11  BANK12  BANK13
      Params:         0       0       0       0       0       0       0       0       0       0       0       0       0       0       0
      Locals:         0       0       0       0       0       0       0       0       0       0       0       0       0       0       0
      Temps:          0       0       0       0       0       0       0       0       0       0       0       0       0       0       0
      Totals:         0       0       0       0       0       0       0       0       0       0       0       0       0       0       0
Total ram usage:        0 bytes
 Hardware stack levels used:    1
 This function calls:
		Nothing
 This function is called by:
		_EXT_INT_Initialize
		_INT1_CallBack
 This function uses a non-reentrant model



MODULE INFORMATION

Module		Function		Class		Link	Load	Size
mcc_generated_files/LoRaWAN/lorawan.c
		_UpdateReceiveWindow2Parameters		CODE           	6088	0000	23
		_ExecuteRxTimingSetup		CODE           	5D64	0000	37
		_ComputeMic    		CODE           	523E	0000	75
		_SetReceptionNotOkState		CODE           	4CCE	0000	87
		_PrepareJoinRequestFrame		CODE           	2E40	0000	183
		_LORAWAN_ReceiveWindow2Callback		CODE           	3E04	0000	165
		_LORAWAN_LinkCheckConfigure		CODE           	3168	0000	257
		_LORAWAN_SetApplicationSessionKey		CODE           	5A44	0000	39
		_CountfOptsLength		CODE           	483A	0000	83
		_AssembleEncryptionBlock		CODE           	4380	0000	97
		_UpdateCurrentDataRate		CODE           	6218	0000	9
		_UnconfirmedTransmissionCallback		CODE           	4B20	0000	79
		_LORAWAN_SetNetworkSessionKey		CODE           	5C5A	0000	41
		_MacExecuteCommands		CODE           	2502	0000	383
		_IncludeMacCommandsResponse		CODE           	1FC8	0000	437
		_LORAWAN_GetMaxPayloadSize		CODE           	5828	0000	49
		_CheckMcastFlags		CODE           	50E8	0000	75
		_SetJoinFailState		CODE           	5D40	0000	37
		_AckRetransmissionCallback		CODE           	3268	0000	253
		_PrepareSessionKeys		CODE           	4FDA	0000	71
		_UpdateMinMaxChDataRate		CODE           	4B92	0000	107
		_EncryptFRMPayload		CODE           	2D1E	0000	201
		_ResetParametersForUnconfirmedTransmission		CODE           	61C4	0000	11
		_AutomaticReplyCallback		CODE           	5F64	0000	27
		_ResetParametersForConfirmedTransmission		CODE           	614E	0000	9
		_FindSmallestDataRate		CODE           	47B4	0000	135
		_LORAWAN_SetDeviceAddress		CODE           	5FB2	0000	25
		_UpdateTxPower 		CODE           	6210	0000	9
		_CheckFlags    		CODE           	54FE	0000	59
		_ExtractMic    		CODE           	5770	0000	63
		_LORAWAN_ReceiveWindow1Callback		CODE           	4424	0000	137
		_LORAWAN_Send  		CODE           	3F70	0000	179
		_LORAWAN_Join  		CODE           	4728	0000	141
		_ConfigureRadioRx		CODE           	5CCE	0000	39
		_UpdateReceiveDelays		CODE           	590C	0000	55
		_ComputeSessionKeys		CODE           	4C66	0000	67
		_LORAWAN_LinkCheckCallback		CODE           	2F54	0000	187
		_UpdateJoinSuccessState		CODE           	3BD0	0000	141
		_LORAWAN_EnterContinuousReceive		CODE           	4EC0	0000	75
		_ExecuteLinkCheck		CODE           	5B82	0000	31
		_LORAWAN_Mainloop		CODE           	57EC	0000	61
		_AssemblePacket		CODE           	14C0	0000	589
		_UpdateRetransmissionAckTimeoutState		CODE           	5198	0000	85
		_Random        		CODE           	5DF2	0000	35
		_LORAWAN_RxDone		CODE           	008A	0000	1633
		_UpdateJoinInProgress		CODE           	5F98	0000	27

mcc_generated_files/LoRaWAN/lorawan.c estimated size: 6608

mcc_generated_files/LoRaWAN/interrupt_manager_lora_addons.c
		_INTERRUPT_GetDioStatus		CODE           	615E	0000	15

mcc_generated_files/LoRaWAN/interrupt_manager_lora_addons.c estimated size: 15

mcc_generated_files/LoRaWAN/lorawan_aes.c
		_AESEncodeLoRa 		CODE           	5CF4	0000	39

mcc_generated_files/LoRaWAN/lorawan_aes.c estimated size: 39

C:\Program Files (x86)\Microchip\xc8\v1.38\sources\common\lwmod.c
		___lwmod       		CODE           	57AE	0000	63

C:\Program Files (x86)\Microchip\xc8\v1.38\sources\common\lwmod.c estimated size: 63

C:\Program Files (x86)\Microchip\xc8\v1.38\sources\common\memcpy.c
		_memcpy        		CODE           	5140	0000	89

C:\Program Files (x86)\Microchip\xc8\v1.38\sources\common\memcpy.c estimated size: 89

C:\Program Files (x86)\Microchip\xc8\v1.38\sources\common\rand.c
		_srand         		CODE           	616C	0000	15
		_rand          		CODE           	5380	0000	79

C:\Program Files (x86)\Microchip\xc8\v1.38\sources\common\rand.c estimated size: 94

C:\Program Files (x86)\Microchip\xc8\v1.38\sources\common\llmod.c
		___llmod       		CODE           	4E5E	0000	99

C:\Program Files (x86)\Microchip\xc8\v1.38\sources\common\llmod.c estimated size: 99

C:\Program Files (x86)\Microchip\xc8\v1.38\sources\common\Umul16.c
		___wmul        		CODE           	5C82	0000	39

C:\Program Files (x86)\Microchip\xc8\v1.38\sources\common\Umul16.c estimated size: 39

mcc_generated_files/LoRaWAN/sw_timer.c
		_SwTimerStop   		CODE           	613C	0000	19
		_SwTimerStart  		CODE           	4BFC	0000	107
		_TMR_GetDeltaTime		CODE           	422E	0000	125
		_SwTimerReadValue		CODE           	59E0	0000	53
		_SwTimerIsRunning		CODE           	60B4	0000	23
		_SwTimerCreate 		CODE           	5624	0000	69
		_TMR_OverrideRemaining		CODE           	4A32	0000	121
		_TMR_SwapTimer 		CODE           	5942	0000	55
		_SwTimerSetCallback		CODE           	5BDA	0000	29
		_SwTimerSetTimeout		CODE           	589E	0000	57
		_SwTimersInterrupt		CODE           	3D4C	0000	169
		_SystemBlockingWaitMs		CODE           	5C06	0000	43
		_SwTimersExecute		CODE           	469A	0000	111
		_SystemTimerInit		CODE           	6248	0000	7

mcc_generated_files/LoRaWAN/sw_timer.c estimated size: 988

mcc_generated_files/interrupt_manager.c
		_INTERRUPT_Initialize		CODE           	6288	0000	5
		_INTERRUPT_InterruptManager		CODE           	0008	0000	123

mcc_generated_files/interrupt_manager.c estimated size: 128

mcc_generated_files/pin_manager.c
		_PIN_MANAGER_Initialize		CODE           	3530	0000	211
		_IOCBF4_DefaultInterruptHandler		CODE           	62A8	0000	3
		_IOCBF4_ISR    		CODE           	5DAC	0000	37
		_PIN_MANAGER_IOC		CODE           	6240	0000	9
		_IOCBF4_SetInterruptHandler		CODE           	6192	0000	11

mcc_generated_files/pin_manager.c estimated size: 271

mcc_generated_files/LoRaWAN/lorawan_init.c
		_DIO0_ISR_Lora_Init		CODE           	6284	0000	5
		_DIO1_ISR_Lora_Init		CODE           	6280	0000	5
		_DIO2_ISR_Lora_Init		CODE           	6208	0000	3
		_DIO3_ISR_Lora_Init		CODE           	629E	0000	3
		_DIO4_ISR_Lora_Init		CODE           	629C	0000	3
		_LORAWAN_PlatformInit		CODE           	5E54	0000	33
		_DIO5_ISR_Lora_Init		CODE           	627C	0000	5

mcc_generated_files/LoRaWAN/lorawan_init.c estimated size: 57

mcc_generated_files/LoRaWAN/radio_driver_hal.c
		_HALDIO5PinValue		CODE           	6266	0000	7
		_HALResetPinMakeInput		CODE           	6298	0000	5
		_HALResetPinMakeOutput		CODE           	6294	0000	5
		_HALResetPinOutputValue		CODE           	60F2	0000	21
		_HALSPISend    		CODE           	61F6	0000	11
		_HALSPICSDeassert		CODE           	628C	0000	5
		_HALSPICSAssert		CODE           	6290	0000	5

mcc_generated_files/LoRaWAN/radio_driver_hal.c estimated size: 59

C:\Program Files (x86)\Microchip\xc8\v1.38\sources\common\Umul32.c
		___lmul        		CODE           	5468	0000	77

C:\Program Files (x86)\Microchip\xc8\v1.38\sources\common\Umul32.c estimated size: 77

mcc_generated_files/LoRaWAN/lorawan_aes_cmac.c
		_GenerateSubkey		CODE           	344E	0000	185
		_AESCmac       		CODE           	11E8	0000	565
		_FillSubKey    		CODE           	5548	0000	75

mcc_generated_files/LoRaWAN/lorawan_aes_cmac.c estimated size: 825

C:\Program Files (x86)\Microchip\xc8\v1.38\sources\common\lldiv.c
		___lldiv       		CODE           	4AAA	0000	119

C:\Program Files (x86)\Microchip\xc8\v1.38\sources\common\lldiv.c estimated size: 119

mcc_generated_files/LoRaWAN/radio_driver_SX1276.c
		_RADIO_ReceiveStart		CODE           	21AC	0000	391
		_RADIO_Init    		CODE           	236A	0000	391
		_RADIO_SetSpreadingFactor		CODE           	6228	0000	9
		_RADIO_WriteConfiguration		CODE           	0DB6	0000	969
		_RADIO_RxFSKTimeout		CODE           	5978	0000	47
		_RADIO_WriteFSKBitRate		CODE           	4DFC	0000	99
		_RADIO_WriteMode		CODE           	36EA	0000	201
		_RADIO_Reset   		CODE           	5AFC	0000	47
		_RADIO_GetStatus		CODE           	625A	0000	7
		_RADIO_RxDone  		CODE           	3EBA	0000	183
		_RADIO_WriteFSKFrequencyDeviation		CODE           	4F20	0000	95
		_RADIO_GetPacketSnr		CODE           	6254	0000	7
		_RADIO_SetModulation		CODE           	6230	0000	9
		_RADIO_RegisterWrite		CODE           	5EF2	0000	31
		_RADIO_ReadRandom		CODE           	49BA	0000	99
		_RADIO_ReleaseData		CODE           	6260	0000	7
		_RADIO_FSKPacketSent		CODE           	3364	0000	159
		_RADIO_RegisterRead		CODE           	5D1A	0000	39
		_RADIO_SetBandwidth		CODE           	6238	0000	9
		_RADIO_ReceiveStop		CODE           	602A	0000	25
		_RADIO_DIO0    		CODE           	4D34	0000	101
		_RADIO_DIO1    		CODE           	5864	0000	59
		_RADIO_DIO2    		CODE           	55DC	0000	73
		_RADIO_DIO3    		CODE           	5FFA	0000	25
		_RADIO_DIO4    		CODE           	5FE2	0000	25
		_RADIO_DIO5    		CODE           	5FCA	0000	25
		_RADIO_FHSSChangeChannel		CODE           	5A72	0000	47
		_RADIO_TxDone  		CODE           	44C6	0000	161
		_RADIO_SetFrequencyHopPeriod		CODE           	61E2	0000	11
		_RADIO_FSKPayloadReady		CODE           	4566	0000	131
		_RADIO_SetLoRaSyncWord		CODE           	61EC	0000	11
		_RADIO_SetIQInverted		CODE           	61CE	0000	11
		_RADIO_SetFSKSyncWord		CODE           	5BAE	0000	45
		_RADIO_RxTimeout		CODE           	5B2A	0000	33
		_RADIO_WritePower		CODE           	3972	0000	199
		_RADIO_SetOutputPower		CODE           	6220	0000	9
		_RADIO_WatchdogTimeout		CODE           	58D6	0000	55
		_RADIO_SetChannelFrequency		CODE           	48BE	0000	131
		_RADIO_Transmit		CODE           	1DE0	0000	417
		_RADIO_UnhandledInterrupt		CODE           	5E74	0000	33
		_RADIO_SetCRC  		CODE           	61D8	0000	11
		_RADIO_WriteFrequency		CODE           	37C4	0000	205

mcc_generated_files/LoRaWAN/radio_driver_SX1276.c estimated size: 4642

mcc_generated_files/ext_int.c
		_INT0_SetInterruptHandler		CODE           	62A2	0000	3
		_INT1_SetInterruptHandler		CODE           	61B0	0000	11
		_EXT_INT_Initialize		CODE           	54B4	0000	75
		_INT2_SetInterruptHandler		CODE           	61A6	0000	11
		_INT3_SetInterruptHandler		CODE           	62A0	0000	3
		_INT1_DefaultInterruptHandler		CODE           	62AC	0000	3
		_INT1_CallBack 		CODE           	5F48	0000	29
		_INT2_DefaultInterruptHandler		CODE           	62AA	0000	3
		_INT2_CallBack 		CODE           	5F2C	0000	29
		_INT1_ISR      		CODE           	6272	0000	7
		_INT2_ISR      		CODE           	626C	0000	7

mcc_generated_files/ext_int.c estimated size: 181

mcc_generated_files/LoRaWAN/tmr_lora_addons.c
		_TMR_ISR_Lora_Init		CODE           	6186	0000	13
		_TMR_ISR_lora  		CODE           	52E2	0000	71

mcc_generated_files/LoRaWAN/tmr_lora_addons.c estimated size: 84

shared
		PL12           		CODE           	436E	0000	19
		PL50           		CODE           	2D08	0000	13
		PL8            		CODE           	0CF2	0000	53
		PL268          		CODE           	342A	0000	11
		PL458          		CODE           	11D6	0000	7
		PL22           		CODE           	0D26	0000	21
		PL60           		CODE           	0D46	0000	55
		PL178          		CODE           	170C	0000	13
		PL368          		CODE           	293C	0000	11
		PL100          		CODE           	1918	0000	15
		PL32           		CODE           	2332	0000	11
		PL70           		CODE           	3C6E	0000	27
		PL278          		CODE           	0880	0000	13
		PL468          		CODE           	59A6	0000	7
		PL200          		CODE           	43F6	0000	15
		PL42           		CODE           	071C	0000	11
		PL80           		CODE           	2A90	0000	19
		PL188          		CODE           	5072	0000	11
		PL378          		CODE           	6156	0000	9
		PL110          		CODE           	1926	0000	21
		PL300          		CODE           	5BA0	0000	15
		PL14           		CODE           	217C	0000	15
		PL52           		CODE           	0726	0000	13
		PL90           		CODE           	2AA2	0000	15
		PL288          		CODE           	4B7A	0000	11
		PL210          		CODE           	27C8	0000	21
		PL400          		CODE           	2E36	0000	11
		PL24           		CODE           	06EA	0000	17
		PL62           		CODE           	3042	0000	21
		PL198          		CODE           	0820	0000	15
		PL388          		CODE           	49B0	0000	11
		PL120          		CODE           	1D9C	0000	31
		PL310          		CODE           	4B84	0000	15
		PL34           		CODE           	070A	0000	19
		PL72           		CODE           	5B72	0000	17
		PL298          		CODE           	3BA8	0000	13
		PL220          		CODE           	1436	0000	11
		PL410          		CODE           	4A24	0000	9
		PL44           		CODE           	300E	0000	53
		PL82           		CODE           	1BA2	0000	11
		PL398          		CODE           	11B0	0000	11
		PL130          		CODE           	43E0	0000	11
		PL320          		CODE           	3434	0000	15
		PL16           		CODE           	218A	0000	17
		PL54           		CODE           	488C	0000	13
		PL92           		CODE           	0732	0000	15
		PL230          		CODE           	1DC4	0000	19
		PL420          		CODE           	1FC2	0000	7
		PL26           		CODE           	2CEC	0000	15
		PL64           		CODE           	3AFE	0000	11
		_spreadingFactor		MEDIUMCONST    	FF9B	0000	8
		PL102          		CODE           	0762	0000	35
		PL140          		CODE           	1DBA	0000	11
		PL330          		CODE           	27EA	0000	11
		PL36           		CODE           	4708	0000	17
		PL74           		CODE           	18FC	0000	15
		PL202          		CODE           	5020	0000	15
		PL240          		CODE           	3056	0000	13
		PL430          		CODE           	4D2A	0000	11
		PL46           		CODE           	3C5C	0000	19
		PL84           		CODE           	48A2	0000	29
		_maxPayloadSize		MEDIUMCONST    	FF6D	0000	9
		PL112          		CODE           	1D84	0000	13
		PL302          		CODE           	5A6A	0000	9
		PL150          		CODE           	3EA8	0000	9
		PL340          		CODE           	1F94	0000	13
		PL18           		CODE           	3B90	0000	15
		PL56           		CODE           	4898	0000	11
		PL94           		CODE           	4718	0000	17
		PL212          		CODE           	083C	0000	21
		PL402          		CODE           	507C	0000	11
		PL250          		CODE           	174A	0000	13
		PL440          		CODE           	219A	0000	11
		PL28           		CODE           	06FA	0000	17
		PL66           		CODE           	0D7C	0000	9
		_DefaultChannels433		MEDIUMCONST    	FFA8	0000	43
		PL122          		CODE           	1F80	0000	21
		PL312          		CODE           	1458	0000	9
		PL160          		CODE           	5288	0000	9
		PL350          		CODE           	3442	0000	13
		PL38           		CODE           	3402	0000	29
		PL76           		CODE           	190A	0000	15
		PL222          		CODE           	172C	0000	19
		PL412          		CODE           	14A2	0000	11
		PL260          		CODE           	197C	0000	17
		PL450          		CODE           	11C8	0000	9
		PL48           		CODE           	0D3A	0000	13
		PL86           		CODE           	5B4A	0000	13
		_FskSyncWordBuff		MEDIUMCONST    	FFFC	0000	4
		PL132          		CODE           	233C	0000	19
		PL322          		CODE           	3BB4	0000	11
		PL170          		CODE           	07F2	0000	25
		PL360          		CODE           	3602	0000	13
		PL58           		CODE           	3AF0	0000	15
		PL96           		CODE           	0740	0000	35
		PL232          		CODE           	2E06	0000	19
		PL422          		CODE           	2680	0000	11
		PL270          		CODE           	2F3C	0000	9
		PL460          		CODE           	37BE	0000	7
		PL68           		CODE           	2D14	0000	11
		PL104          		CODE           	0D9E	0000	17
		PL142          		CODE           	43EA	0000	13
		PL332          		CODE           	2BF0	0000	11
		PL180          		CODE           	2F1C	0000	11
		PL370          		CODE           	08C2	0000	11
		PL78           		CODE           	2EF6	0000	39
		_rxWindowSize  		MEDIUMCONST    	FF85	0000	9
		i2_TMR_SwapTimer		CODE           	572E	0000	53
		i2_TMR1_ReadTimer		CODE           	5EB4	0000	33
		PL204          		CODE           	082E	0000	15
		PL242          		CODE           	37B2	0000	13
		PL432          		CODE           	08D6	0000	11
		PL280          		CODE           	1450	0000	9
		PL470          		CODE           	21A4	0000	9
		PL88           		CODE           	0D84	0000	11
		PL114          		CODE           	1D90	0000	13
		PL304          		CODE           	45F6	0000	15
		PL152          		CODE           	44AC	0000	27
		PL342          		CODE           	1190	0000	13
		PL190          		CODE           	2F26	0000	23
		PL380          		CODE           	1756	0000	9
		PL98           		CODE           	0D8E	0000	17
		_DefaultChannels868		MEDIUMCONST    	FFD2	0000	43
		PL214          		CODE           	4404	0000	11
		PL404          		CODE           	11BA	0000	9
		PL252          		CODE           	4CC2	0000	13
		PL442          		CODE           	5086	0000	11
		PL290          		CODE           	088C	0000	9
		PL124          		CODE           	42AA	0000	31
		PL314          		CODE           	4214	0000	15
		PL162          		CODE           	07D2	0000	17
		PL352          		CODE           	4222	0000	13
		PL390          		CODE           	1BB6	0000	9
		_macEndDevCmdReplyLen		MEDIUMCONST    	FF94	0000	8
		__initialization		CODE           	4604	0000	145
		PL224          		CODE           	24F0	0000	19
		PL414          		CODE           	620A	0000	7
		PL262          		CODE           	2E18	0000	17
		PL452          		CODE           	3BC8	0000	9
		PL134          		CODE           	5132	0000	15
		PL324          		CODE           	1DD6	0000	11
		PL172          		CODE           	2918	0000	25
		PL362          		CODE           	1FAC	0000	13
		_txPower868    		MEDIUMCONST    	FFA2	0000	7
		PL234          		CODE           	173E	0000	13
		PL424          		CODE           	14AC	0000	11
		PL272          		CODE           	4DEC	0000	17
		PL462          		CODE           	3A38	0000	7
		PL106          		CODE           	0784	0000	21
		PL144          		CODE           	07AC	0000	13
		PL334          		CODE           	08AC	0000	11
		PL182          		CODE           	55D2	0000	11
		PL372          		CODE           	11A8	0000	9
		i2_TMR1_WriteTimer		CODE           	605A	0000	15
		PL206          		CODE           	351C	0000	21
		PL244          		CODE           	1964	0000	13
		PL434          		CODE           	6068	0000	11
		PL282          		CODE           	2F44	0000	17
		PL472          		CODE           	4A2C	0000	7
		PL116          		CODE           	193A	0000	33
		PL306          		CODE           	4416	0000	15
		PL154          		CODE           	141C	0000	27
		PL344          		CODE           	1478	0000	11
		PL192          		CODE           	4F0A	0000	23
		PL382          		CODE           	175E	0000	9
		_rxWindowOffset		MEDIUMCONST    	FF7D	0000	9
		PL216          		CODE           	0850	0000	21
		PL406          		CODE           	3EB0	0000	11
		PL254          		CODE           	1BAC	0000	11
		PL444          		CODE           	14B6	0000	11
		PL292          		CODE           	5762	0000	15
		PL126          		CODE           	3914	0000	31
		PL316          		CODE           	198C	0000	9
		PL164          		CODE           	5538	0000	17
		PL354          		CODE           	1FA0	0000	13
		PL392          		CODE           	08CC	0000	11
		PL226          		CODE           	0864	0000	9
		PL416          		CODE           	11C2	0000	7
		PL264          		CODE           	0876	0000	11
		PL454          		CODE           	11D0	0000	7
		_STable        		MEDIUMCONST    	FE6D	0000	257
		PL136          		CODE           	3932	0000	29
		PL326          		CODE           	146E	0000	11
		PL174          		CODE           	5858	0000	13
		PL364          		CODE           	2930	0000	13
		PL236          		CODE           	4D24	0000	7
		PL426          		CODE           	6050	0000	11
		PL274          		CODE           	45E8	0000	15
		PL464          		CODE           	11DC	0000	7
		PL108          		CODE           	0798	0000	21
		PL146          		CODE           	07B8	0000	27
		PL336          		CODE           	3BBE	0000	11
		PL184          		CODE           	3B9E	0000	11
		PL374          		CODE           	2946	0000	11
		_modulation    		MEDIUMCONST    	FF75	0000	9
		PL208          		CODE           	394E	0000	21
		PL246          		CODE           	1970	0000	13
		PL436          		CODE           	315E	0000	11
		PL284          		CODE           	3962	0000	17
		PL474          		CODE           	11E2	0000	7
		PL118          		CODE           	2DE6	0000	33
		PL308          		CODE           	27DC	0000	15
		PL156          		CODE           	195A	0000	11
		PL346          		CODE           	1482	0000	13
		PL194          		CODE           	4B6E	0000	13
		PL384          		CODE           	1FB8	0000	11
		PL218          		CODE           	1718	0000	21
		PL408          		CODE           	149A	0000	9
		PL256          		CODE           	086C	0000	11
		PL446          		CODE           	08E0	0000	11
		PL294          		CODE           	0894	0000	15
		PL128          		CODE           	117E	0000	19
		PL318          		CODE           	1460	0000	15
		PL166          		CODE           	07E2	0000	9
		PL356          		CODE           	08B6	0000	13
		PL394          		CODE           	295A	0000	11
		PL228          		CODE           	1440	0000	17
		PL418          		CODE           	2AB0	0000	11
		PL266          		CODE           	440E	0000	9
		PL456          		CODE           	2364	0000	7
		PL138          		CODE           	0DAE	0000	9
		PL328          		CODE           	08A2	0000	11
		PL176          		CODE           	3506	0000	23
		PL366          		CODE           	1994	0000	9
		PL2            		CODE           	2BD6	0000	17
		PL238          		CODE           	341E	0000	13
		PL428          		CODE           	5328	0000	11
		PL276          		CODE           	3C88	0000	9
		PL466          		CODE           	50E0	0000	9
		PL148          		CODE           	4CA8	0000	27
		PL338          		CODE           	27F4	0000	11
		PL186          		CODE           	080A	0000	23
		PL376          		CODE           	2950	0000	11
		i2_SwTimersInterrupt		CODE           	40D4	0000	175
		PL10           		CODE           	3DF4	0000	17
		PL4            		CODE           	0CE2	0000	17
		_bandwidth     		MEDIUMCONST    	FF8D	0000	8
		PL248          		CODE           	3890	0000	13
		PL438          		CODE           	1BBE	0000	11
		PL286          		CODE           	2BE6	0000	11
		PL20           		CODE           	2CC4	0000	41
		PL158          		CODE           	5BF6	0000	17
		PL348          		CODE           	148E	0000	13
		PL196          		CODE           	234E	0000	13
		PL386          		CODE           	4A1C	0000	9
		PL30           		CODE           	2A78	0000	25
		PL6            		CODE           	435E	0000	17
		i2_TMR_GetDeltaTime		CODE           	389C	0000	121
		PL258          		CODE           	42C8	0000	17
		PL448          		CODE           	502E	0000	9
		PL296          		CODE           	2E28	0000	15
		PL40           		CODE           	2CFA	0000	15
		PL168          		CODE           	07EA	0000	9
		PL358          		CODE           	119C	0000	13
		PL396          		CODE           	235A	0000	11

shared estimated size: 4525

mcc_generated_files/eusart1.c
		_EUSART1_Initialize		CODE           	6072	0000	23

mcc_generated_files/eusart1.c estimated size: 23

mcc_generated_files/LoRaWAN/lorawan_eu.c
		_ExecuteNewChannel		CODE           	268A	0000	319
		_ExecuteLinkAdr		CODE           	2ABA	0000	285
		_UpdateDataRange		CODE           	42D8	0000	135
		_UpdateDutyCycle		CODE           	5B56	0000	29
		_ValidateChannelMaskCntl		CODE           	6012	0000	25
		_LORAWAN_RxTimeout		CODE           	199C	0000	519
		_ValidateChannelId		CODE           	5ED4	0000	31
		_InitDefault433Channels		CODE           	5036	0000	61
		_DutyCycleCallback		CODE           	1BC8	0000	445
		_InitDefault868Channels		CODE           	5592	0000	65
		_SelectChannelForTransmission		CODE           	4D98	0000	85
		_ValidateChannelMask		CODE           	5ACE	0000	47
		_ValidateDataRate		CODE           	60DE	0000	21
		_ValidateRxOffset		CODE           	60CA	0000	21
		_ValidateDataRange		CODE           	59AC	0000	53
		_SetCallbackSoftwareTimers		CODE           	4182	0000	147
		_StartReTxTimer		CODE           	360E	0000	221
		_SearchAvailableChannel		CODE           	4022	0000	179
		_EnableChannels		CODE           	609E	0000	23
		_UpdateFrequency		CODE           	5CA8	0000	39
		_ValidateFrequency		CODE           	4F7E	0000	93
		_EnableChannels1		CODE           	5090	0000	81
		_ExecuteRxParamSetupReq		CODE           	3062	0000	253
		_UpdateDLSettings		CODE           	5F7E	0000	27
		_GetRx1Freq    		CODE           	6118	0000	19
		_ValidateTxPower		CODE           	5DD0	0000	35
		_LORAWAN_Init  		CODE           	541C	0000	77
		_ConfigureRadioTx		CODE           	56EC	0000	67
		_LORAWAN_Reset 		CODE           	27FE	0000	283
		_ExecuteDutyCycle		CODE           	5332	0000	79
		_UpdateCfList  		CODE           	2964	0000	277
		_LORAWAN_SetChannelIdStatus		CODE           	5AA0	0000	47
		_StopAllSoftwareTimers		CODE           	53CE	0000	79
		_UpdateChannelIdStatus		CODE           	3B08	0000	137
		_ConfigureRadio		CODE           	4940	0000	113
		_LORAWAN_TxDone		CODE           	08EA	0000	1017
		_ExecuteDevStatus		CODE           	61BA	0000	11
		_CreateAllSoftwareTimers		CODE           	5290	0000	83

mcc_generated_files/LoRaWAN/lorawan_eu.c estimated size: 5528

mcc_generated_files/mcc.c
		_OSCILLATOR_Initialize		CODE           	6106	0000	19
		_SYSTEM_Initialize		CODE           	5E34	0000	33

mcc_generated_files/mcc.c estimated size: 52

C:\Program Files (x86)\Microchip\xc8\v1.38\sources\common\memset.c
		_memset        		CODE           	5C30	0000	43

C:\Program Files (x86)\Microchip\xc8\v1.38\sources\common\memset.c estimated size: 43

mcc_generated_files/tmr1.c
		_TMR1_Initialize		CODE           	56AA	0000	67
		_TMR1_SetInterruptHandler		CODE           	619C	0000	11
		_TMR1_DefaultInterruptHandler		CODE           	62A6	0000	3
		_TMR1_CallBack 		CODE           	5F10	0000	29
		_TMR1_WriteTimer		CODE           	6042	0000	15
		_TMR1_StartTimer		CODE           	6278	0000	5
		_TMR1_ReadTimer		CODE           	5E94	0000	33
		_TMR1_ISR      		CODE           	5D88	0000	37

mcc_generated_files/tmr1.c estimated size: 200

mcc_generated_files/LoRaWAN/AES.c
		_AESEncode     		CODE           	1766	0000	407
		_EncKeySchedule		CODE           	2BFA	0000	203
		_EncodeShiftRow		CODE           	3A3E	0000	179

mcc_generated_files/LoRaWAN/AES.c estimated size: 789

mcc_generated_files/spi2.c
		_SPI2_Exchange8bit		CODE           	612A	0000	19
		_SPI2_Initialize		CODE           	617A	0000	13

mcc_generated_files/spi2.c estimated size: 32

C:\Program Files (x86)\Microchip\xc8\v1.38\sources\common\abdiv.c
		___abdiv       		CODE           	51EC	0000	83

C:\Program Files (x86)\Microchip\xc8\v1.38\sources\common\abdiv.c estimated size: 83

main.c
		_sendPacket    		CODE           	5E14	0000	33
		_main          		CODE           	3C90	0000	189
		_flash         		CODE           	5668	0000	67
		_RxJoinResponse		CODE           	624E	0000	7
		_RxDataDone    		CODE           	62A4	0000	3

main.c estimated size: 299

